(dp1
S'name'
p2
S'local bump'
p3
sS'config_description'
p4
S''
sS'version'
p5
S'0.1.0'
p6
sS'time_stamp'
p7
F1333032677.7769971
sS'data'
p8
(iaphla.gui.TunerUtils.knob
KnobGroupList
p9
(dp10
S'refKnobGroupName'
p11
S'CYHG2C30A.y'
p12
sS'knobGroups'
p13
(lp14
(iaphla.gui.TunerUtils.knob
KnobGroup
p15
(dp16
S'knobs'
p17
(lp18
(iaphla.gui.TunerUtils.knob
Knob
p19
(dp20
S'symmetry'
p21
VA
sS'sequence'
p22
(I0
I0
tp23
sS'index'
p24
I16
sS'group'
p25
(lp26
VVCOR
p27
aVC30
p28
aVG2
p29
aVA
asS'family'
p30
VVCOR
p31
sS'pvrb_val_time_stamp'
p32
NsS'virtual'
p33
I0
sS'pv_unit'
p34
S''
sS'pvsp'
p35
(lp36
S'SR:C30-MG:G02A{VCor:H}Fld-SP'
p37
asS'phylen'
p38
F0
sS'girder'
p39
VG2
p40
sS'pvsp_val'
p41
ccopy_reg
_reconstructor
p42
(ccothread.dbr
ca_float
p43
c__builtin__
float
p44
F-2.3326933073564497e-09
tRp45
(dp46
S'ok'
p47
I01
sg2
S'SR:C30-MG:G02A{VCor:H}Fld-SP'
p48
sbsS'pvrb_val'
p49
g42
(g43
g44
F-2.3327389930489801e-09
tRp50
(dp51
g47
I01
sg2
S'SR:C30-MG:G02A{VCor:H}Fld-I'
p52
sbsS'devname'
p53
VSQHG2C30A
p54
sS'elem_name'
p55
VCYHG2C30A
p56
sS'field_name'
p57
Vy
sg2
VCYHG2C30A.y
p58
sS'pvrb'
p59
(lp60
S'SR:C30-MG:G02A{VCor:H}Fld-I'
p61
asS'pvsp_val_time_stamp'
p62
NsS'cell'
p63
VC30
p64
sS'length'
p65
F0.20000000000000001
sS'sb'
p66
F5.4325000000000001
sS'se'
p67
F5.6325000000000003
sbasg2
S'CYHG2C30A.y'
p68
sS'weight'
p69
I1
sba(iaphla.gui.TunerUtils.knob
KnobGroup
p70
(dp71
g17
(lp72
(iaphla.gui.TunerUtils.knob
Knob
p73
(dp74
g21
VA
sg22
g23
sg24
I30
sg25
(lp75
VVCOR
p76
aVC30
p77
aVG2
p78
aVA
asg30
VVCOR
p79
sg32
Nsg33
I0
sg34
S''
sg35
(lp80
S'SR:C30-MG:G02A{VCor:H2}Fld-SP'
p81
asg38
F0
sg39
VG2
p82
sg41
g42
(g43
g44
F-1.9325224526895946e-08
tRp83
(dp84
g47
I01
sg2
S'SR:C30-MG:G02A{VCor:H2}Fld-SP'
p85
sbsg49
g42
(g43
g44
F-1.9329166683973656e-08
tRp86
(dp87
g47
I01
sg2
S'SR:C30-MG:G02A{VCor:H2}Fld-I'
p88
sbsg53
VCH2G2C30A
p89
sg55
VCYH2G2C30A
p90
sg57
Vy
sg2
VCYH2G2C30A.y
p91
sg59
(lp92
S'SR:C30-MG:G02A{VCor:H2}Fld-I'
p93
asg62
Nsg63
VC30
p94
sg65
F0.29999999999999999
sg66
F7.9985000000000008
sg67
F8.2985000000000007
sbasg2
S'CYH2G2C30A.y'
p95
sg69
F-0.2270371566140118
sba(iaphla.gui.TunerUtils.knob
KnobGroup
p96
(dp97
g17
(lp98
(iaphla.gui.TunerUtils.knob
Knob
p99
(dp100
g21
VA
sg22
g23
sg24
I40
sg25
(lp101
VVCOR
p102
aVC30
p103
aVG4
p104
aVA
asg30
VVCOR
p105
sg32
Nsg33
I0
sg34
S''
sg35
(lp106
S'SR:C30-MG:G04A{VCor:M1}Fld-SP'
p107
asg38
F0
sg39
VG4
p108
sg41
g42
(g43
g44
F2.2224399701061476e-08
tRp109
(dp110
g47
I01
sg2
S'SR:C30-MG:G04A{VCor:M1}Fld-SP'
p111
sbsg49
g42
(g43
g44
F2.2222020925571995e-08
tRp112
(dp113
g47
I01
sg2
S'SR:C30-MG:G04A{VCor:M1}Fld-I'
p114
sbsg53
VCM1G4C30A
p115
sg55
VCYM1G4C30A
p116
sg57
Vy
sg2
VCYM1G4C30A.y
p117
sg59
(lp118
S'SR:C30-MG:G04A{VCor:M1}Fld-I'
p119
asg62
Nsg63
VC30
p120
sg65
F0.20000000000000001
sg66
F11.365
sg67
F11.565
sbasg2
S'CYM1G4C30A.y'
p121
sg69
F-0.6629003196784985
sba(iaphla.gui.TunerUtils.knob
KnobGroup
p122
(dp123
g17
(lp124
(iaphla.gui.TunerUtils.knob
Knob
p125
(dp126
g21
VB
sg22
g23
sg24
I66
sg25
(lp127
VVCOR
p128
aVC30
p129
aVG4
p130
aVB
asg30
VVCOR
p131
sg32
Nsg33
I0
sg34
S''
sg35
(lp132
S'SR:C30-MG:G04B{VCor:M1}Fld-SP'
p133
asg38
F0
sg39
VG4
p134
sg41
g42
(g43
g44
F1.7783180705723207e-08
tRp135
(dp136
g47
I01
sg2
S'SR:C30-MG:G04B{VCor:M1}Fld-SP'
p137
sbsg49
g42
(g43
g44
F1.7784949526405748e-08
tRp138
(dp139
g47
I01
sg2
S'SR:C30-MG:G04B{VCor:M1}Fld-I'
p140
sbsg53
VCM1G4C30B
p141
sg55
VCYM1G4C30B
p142
sg57
Vy
sg2
VCYM1G4C30B.y
p143
sg59
(lp144
S'SR:C30-MG:G04B{VCor:M1}Fld-I'
p145
asg62
Nsg63
VC30
p146
sg65
F0.29999999999999999
sg66
F15.823999999999998
sg67
F16.123999999999999
sbasg2
S'CYM1G4C30B.y'
p147
sg69
F0.29692072492196336
sba(iaphla.gui.TunerUtils.knob
KnobGroup
p148
(dp149
g17
(lp150
(iaphla.gui.TunerUtils.knob
Knob
p151
(dp152
g21
VB
sg22
g23
sg24
I85
sg25
(lp153
VVCOR
p154
aVC30
p155
aVG6
p156
aVB
asg30
VVCOR
p157
sg32
Nsg33
I0
sg34
S''
sg35
(lp158
S'SR:C30-MG:G06B{VCor:L2}Fld-SP'
p159
asg38
F0
sg39
VG6
p160
sg41
g42
(g43
g44
F3.9452079428923969e-08
tRp161
(dp162
g47
I01
sg2
S'SR:C30-MG:G06B{VCor:L2}Fld-SP'
p163
sbsg49
g42
(g43
g44
F3.9438652116714882e-08
tRp164
(dp165
g47
I01
sg2
S'SR:C30-MG:G06B{VCor:L2}Fld-I'
p166
sbsg53
VCL2G6C30B
p167
sg55
VCYL2G6C30B
p168
sg57
Vy
sg2
VCYL2G6C30B.y
p169
sg59
(lp170
S'SR:C30-MG:G06B{VCor:L2}Fld-I'
p171
asg62
Nsg63
VC30
p172
sg65
F0.20000000000000001
sg66
F20.692499999999999
sg67
F20.892499999999998
sbasg2
g169
sg69
F0.10228213880254929
sba(iaphla.gui.TunerUtils.knob
KnobGroup
p173
(dp174
g17
(lp175
(iaphla.gui.TunerUtils.knob
Knob
p176
(dp177
g21
VB
sg22
g23
sg24
I93
sg25
(lp178
VVCOR
p179
aVC30
p180
aVG6
p181
aVB
asg30
VVCOR
p182
sg32
Nsg33
I0
sg34
S''
sg35
(lp183
S'SR:C30-MG:G06B{VCor:L1}Fld-SP'
p184
asg38
F0
sg39
VG6
p185
sg41
g42
(g43
g44
F-6.4769746641908509e-08
tRp186
(dp187
g47
I01
sg2
S'SR:C30-MG:G06B{VCor:L1}Fld-SP'
p188
sbsg49
g42
(g43
g44
F-6.4798246417586225e-08
tRp189
(dp190
g47
I01
sg2
S'SR:C30-MG:G06B{VCor:L1}Fld-I'
p191
sbsg53
VCL1G6C30B
p192
sg55
VCYL1G6C30B
p193
sg57
Vy
sg2
VCYL1G6C30B.y
p194
sg59
(lp195
S'SR:C30-MG:G06B{VCor:L1}Fld-I'
p196
asg62
Nsg63
VC30
p197
sg65
F0.20000000000000001
sg66
F22.129899999999999
sg67
F22.329899999999999
sbasg2
g194
sg69
F0.12835973808612944
sba(iaphla.gui.TunerUtils.knob
KnobGroup
p198
(dp199
g17
(lp200
(iaphla.gui.TunerUtils.knob
Knob
p201
(dp202
g21
VA
sg22
g23
sg24
I126
sg25
(lp203
VVCOR
p204
aVC01
p205
aVG2
p206
aVA
asg30
VVCOR
p207
sg32
Nsg33
I0
sg34
S''
sg35
(lp208
S'SR:C01-MG:G02A{VCor:L1}Fld-SP'
p209
asg38
F0
sg39
VG2
p210
sg41
g42
(g43
g44
F6.2475801111054148e-08
tRp211
(dp212
g47
I01
sg2
S'SR:C01-MG:G02A{VCor:L1}Fld-SP'
p213
sbsg49
g42
(g43
g44
F6.2458066982875794e-08
tRp214
(dp215
g47
I01
sg2
S'SR:C01-MG:G02A{VCor:L1}Fld-I'
p216
sbsg53
VCL1G2C01A
p217
sg55
VCYL1G2C01A
p218
sg57
Vy
sg2
VCYL1G2C01A.y
p219
sg59
(lp220
S'SR:C01-MG:G02A{VCor:L1}Fld-I'
p221
asg62
Nsg63
VC01
p222
sg65
F0.20000000000000001
sg66
F30.467300000000002
sg67
F30.667300000000001
sbasg2
S'CYL1G2C01A.y'
p223
sg69
F0.33564958659308353
sba(iaphla.gui.TunerUtils.knob
KnobGroup
p224
(dp225
g17
(lp226
(iaphla.gui.TunerUtils.knob
Knob
p227
(dp228
g21
VA
sg22
g23
sg24
I134
sg25
(lp229
VVCOR
p230
aVC01
p231
aVG2
p232
aVA
asg30
VVCOR
p233
sg32
Nsg33
I0
sg34
S''
sg35
(lp234
S'SR:C01-MG:G02A{VCor:L2}Fld-SP'
p235
asg38
F0
sg39
VG2
p236
sg41
g42
(g43
g44
F-4.7923419826563658e-08
tRp237
(dp238
g47
I01
sg2
S'SR:C01-MG:G02A{VCor:L2}Fld-SP'
p239
sbsg49
g42
(g43
g44
F-4.7925153289090532e-08
tRp240
(dp241
g47
I01
sg2
S'SR:C01-MG:G02A{VCor:L2}Fld-I'
p242
sbsg53
VCL2G2C01A
p243
sg55
VCYL2G2C01A
p244
sg57
Vy
sg2
VCYL2G2C01A.y
p245
sg59
(lp246
S'SR:C01-MG:G02A{VCor:L2}Fld-I'
p247
asg62
Nsg63
VC01
p248
sg65
F0.20000000000000001
sg66
F31.904700000000002
sg67
F32.104700000000001
sbasg2
g245
sg69
F0.031421199149906244
sba(iaphla.gui.TunerUtils.knob
KnobGroup
p249
(dp250
g17
(lp251
(iaphla.gui.TunerUtils.knob
Knob
p252
(dp253
g21
VA
sg22
g23
sg24
I151
sg25
(lp254
VVCOR
p255
aVC01
p256
aVG4
p257
aVA
asg30
VVCOR
p258
sg32
Nsg33
I0
sg34
S''
sg35
(lp259
S'SR:C01-MG:G04A{VCor:M}Fld-SP'
p260
asg38
F0
sg39
VG4
p261
sg41
g42
(g43
g44
F2.624226072322072e-10
tRp262
(dp263
g47
I01
sg2
S'SR:C01-MG:G04A{VCor:M}Fld-SP'
p264
sbsg49
g42
(g43
g44
F2.6232571688939963e-10
tRp265
(dp266
g47
I01
sg2
S'SR:C01-MG:G04A{VCor:M}Fld-I'
p267
sbsg53
VSQMG4C01A
p268
sg55
VCYMG4C01A
p269
sg57
Vy
sg2
VCYMG4C01A.y
p270
sg59
(lp271
S'SR:C01-MG:G04A{VCor:M}Fld-I'
p272
asg62
Nsg63
VC01
p273
sg65
F0.20000000000000001
sg66
F36.522199999999998
sg67
F36.722200000000001
sbasg2
g270
sg69
F-0.088496446534196027
sba(iaphla.gui.TunerUtils.knob
KnobGroup
p274
(dp275
g17
(lp276
(iaphla.gui.TunerUtils.knob
Knob
p277
(dp278
g21
VB
sg22
g23
sg24
I177
sg25
(lp279
VVCOR
p280
aVC01
p281
aVG4
p282
aVB
asg30
VVCOR
p283
sg32
Nsg33
I0
sg34
S''
sg35
(lp284
S'SR:C01-MG:G04B{VCor:M1}Fld-SP'
p285
asg38
F0
sg39
VG4
p286
sg41
g42
(g43
g44
F1.5877035450347763e-08
tRp287
(dp288
g47
I01
sg2
S'SR:C01-MG:G04B{VCor:M1}Fld-SP'
p289
sbsg49
g42
(g43
g44
F1.5879938911572369e-08
tRp290
(dp291
g47
I01
sg2
S'SR:C01-MG:G04B{VCor:M1}Fld-I'
p292
sbsg53
VCM1G4C01B
p293
sg55
VCYM1G4C01B
p294
sg57
Vy
sg2
VCYM1G4C01B.y
p295
sg59
(lp296
S'SR:C01-MG:G04B{VCor:M1}Fld-I'
p297
asg62
Nsg63
VC01
p298
sg65
F0.29999999999999999
sg66
F40.981200000000001
sg67
F41.281199999999998
sbasg2
g295
sg69
F0.049994957533221834
sba(iaphla.gui.TunerUtils.knob
KnobGroup
p299
(dp300
g17
(lp301
(iaphla.gui.TunerUtils.knob
Knob
p302
(dp303
g21
VB
sg22
g23
sg24
I189
sg25
(lp304
VVCOR
p305
aVC01
p306
aVG6
p307
aVB
asg30
VVCOR
p308
sg32
Nsg33
I0
sg34
S''
sg35
(lp309
S'SR:C01-MG:G06B{VCor:H2}Fld-SP'
p310
asg38
F0
sg39
VG6
p311
sg41
g42
(g43
g44
F-4.2794335647038943e-08
tRp312
(dp313
g47
I01
sg2
S'SR:C01-MG:G06B{VCor:H2}Fld-SP'
p314
sbsg49
g42
(g43
g44
F-4.2773743627851311e-08
tRp315
(dp316
g47
I01
sg2
S'SR:C01-MG:G06B{VCor:H2}Fld-I'
p317
sbsg53
VCH2G6C01B
p318
sg55
VCYH2G6C01B
p319
sg57
Vy
sg2
VCYH2G6C01B.y
p320
sg59
(lp321
S'SR:C01-MG:G06B{VCor:H2}Fld-I'
p322
asg62
Nsg63
VC01
p323
sg65
F0.29999999999999999
sg66
F44.683500000000002
sg67
F44.983499999999999
sbasg2
g320
sg69
F-0.019139826635022974
sba(iaphla.gui.TunerUtils.knob
KnobGroup
p324
(dp325
g17
(lp326
(iaphla.gui.TunerUtils.knob
Knob
p327
(dp328
g21
VA
sg22
g23
sg24
I3158
sg25
(lp329
VVCOR
p330
aVC29
p331
aVG2
p332
aVA
asg30
VVCOR
p333
sg32
Nsg33
I0
sg34
S''
sg35
(lp334
S'SR:C29-MG:G02A{VCor:L2}Fld-SP'
p335
asg38
F0
sg39
VG2
p336
sg41
g42
(g43
g44
F-8.5832740692086634e-08
tRp337
(dp338
g47
I01
sg2
S'SR:C29-MG:G02A{VCor:L2}Fld-SP'
p339
sbsg49
g42
(g43
g44
F-8.5814963157856318e-08
tRp340
(dp341
g47
I01
sg2
S'SR:C29-MG:G02A{VCor:L2}Fld-I'
p342
sbsg53
VCL2G2C29A
p343
sg55
VCYL2G2C29A
p344
sg57
Vy
sg2
VCYL2G2C29A.y
p345
sg59
(lp346
S'SR:C29-MG:G02A{VCor:L2}Fld-I'
p347
asg62
Nsg63
VC29
p348
sg65
F0.20000000000000001
sg66
F771.06599999999992
sg67
F771.26599999999996
sbasg2
g345
sg69
F0.0066730796845829261
sba(iaphla.gui.TunerUtils.knob
KnobGroup
p349
(dp350
g17
(lp351
(iaphla.gui.TunerUtils.knob
Knob
p352
(dp353
g21
VA
sg22
g23
sg24
I3176
sg25
(lp354
VVCOR
p355
aVC29
p356
aVG4
p357
aVA
asg30
VVCOR
p358
sg32
Nsg33
I0
sg34
S''
sg35
(lp359
S'SR:C29-MG:G04A{VCor:M}Fld-SP'
p360
asg38
F0
sg39
VG4
p361
sg41
g42
(g43
g44
F5.198289026650833e-08
tRp362
(dp363
g47
I01
sg2
S'SR:C29-MG:G04A{VCor:M}Fld-SP'
p364
sbsg49
g42
(g43
g44
F5.1965899353241314e-08
tRp365
(dp366
g47
I01
sg2
S'SR:C29-MG:G04A{VCor:M}Fld-I'
p367
sbsg53
VSQMG4C29A
p368
sg55
VCYMG4C29A
p369
sg57
Vy
sg2
VCYMG4C29A.y
p370
sg59
(lp371
S'SR:C29-MG:G04A{VCor:M}Fld-I'
p372
asg62
Nsg63
VC29
p373
sg65
F0.20000000000000001
sg66
F775.68299999999999
sg67
F775.88300000000004
sbasg2
g370
sg69
F-0.0041744942547176141
sba(iaphla.gui.TunerUtils.knob
KnobGroup
p374
(dp375
g17
(lp376
(iaphla.gui.TunerUtils.knob
Knob
p377
(dp378
g21
VB
sg22
g23
sg24
I3204
sg25
(lp379
VVCOR
p380
aVC29
p381
aVG4
p382
aVB
asg30
VVCOR
p383
sg32
Nsg33
I0
sg34
S''
sg35
(lp384
S'SR:C29-MG:G04B{VCor:M1}Fld-SP'
p385
asg38
F0
sg39
VG4
p386
sg41
g42
(g43
g44
F1.800788627349752e-09
tRp387
(dp388
g47
I01
sg2
S'SR:C29-MG:G04B{VCor:M1}Fld-SP'
p389
sbsg49
g42
(g43
g44
F1.801001652661929e-09
tRp390
(dp391
g47
I01
sg2
S'SR:C29-MG:G04B{VCor:M1}Fld-I'
p392
sbsg53
VCM1G4C29B
p393
sg55
VCYM1G4C29B
p394
sg57
Vy
sg2
VCYM1G4C29B.y
p395
sg59
(lp396
S'SR:C29-MG:G04B{VCor:M1}Fld-I'
p397
asg62
Nsg63
VC29
p398
sg65
F0.29999999999999999
sg66
F780.14200000000005
sg67
F780.44200000000001
sbasg2
g395
sg69
F-0.0050911618346463662
sba(iaphla.gui.TunerUtils.knob
KnobGroup
p399
(dp400
g17
(lp401
(iaphla.gui.TunerUtils.knob
Knob
p402
(dp403
g21
VB
sg22
g23
sg24
I3217
sg25
(lp404
VVCOR
p405
aVC29
p406
aVG6
p407
aVB
asg30
VVCOR
p408
sg32
Nsg33
I0
sg34
S''
sg35
(lp409
S'SR:C29-MG:G06B{VCor:H2}Fld-SP'
p410
asg38
F0
sg39
VG6
p411
sg41
g42
(g43
g44
F-4.1360810321507576e-08
tRp412
(dp413
g47
I01
sg2
S'SR:C29-MG:G06B{VCor:H2}Fld-SP'
p414
sbsg49
g42
(g43
g44
F-4.1341165593309326e-08
tRp415
(dp416
g47
I01
sg2
S'SR:C29-MG:G06B{VCor:H2}Fld-I'
p417
sbsg53
VCH2G6C29B
p418
sg55
VCYH2G6C29B
p419
sg57
Vy
sg2
VCYH2G6C29B.y
p420
sg59
(lp421
S'SR:C29-MG:G06B{VCor:H2}Fld-I'
p422
asg62
Nsg63
VC29
p423
sg65
F0.29999999999999999
sg66
F783.84400000000005
sg67
F784.14400000000001
sbasg2
g420
sg69
F0.014904502050318633
sba(iaphla.gui.TunerUtils.knob
KnobGroup
p424
(dp425
g17
(lp426
(iaphla.gui.TunerUtils.knob
Knob
p427
(dp428
g21
VB
sg22
g23
sg24
I3231
sg25
(lp429
VVCOR
p430
aVC29
p431
aVG6
p432
aVB
asg30
VVCOR
p433
sg32
Nsg33
I0
sg34
S''
sg35
(lp434
S'SR:C29-MG:G06B{VCor:H1}Fld-SP'
p435
asg38
F0
sg39
VG6
p436
sg41
g42
(g43
g44
F3.6367345491605573e-08
tRp437
(dp438
g47
I01
sg2
S'SR:C29-MG:G06B{VCor:H1}Fld-SP'
p439
sbsg49
g42
(g43
g44
F3.6370190340871808e-08
tRp440
(dp441
g47
I01
sg2
S'SR:C29-MG:G06B{VCor:H1}Fld-I'
p442
sbsg53
VCH1G6C29B
p443
sg55
VCYH1G6C29B
p444
sg57
Vy
sg2
VCYH1G6C29B.y
p445
sg59
(lp446
S'SR:C29-MG:G06B{VCor:H1}Fld-I'
p447
asg62
Nsg63
VC29
p448
sg65
F0.20000000000000001
sg66
F786.351
sg67
F786.55100000000004
sbasg2
g445
sg69
F-0.016647524308465195
sbasS'refStepSize'
p449
F1.0000000000000001e-05
sS'weight_list'
p450
(lp451
I1
aF-0.2270371566140118
aF-0.6629003196784985
aF0.29692072492196336
aF0.10228213880254929
aF0.12835973808612944
aF0.33564958659308353
aF0.031421199149906244
aF-0.088496446534196027
aF0.049994957533221834
aF-0.019139826635022974
aF0.0066730796845829261
aF-0.0041744942547176141
aF-0.0050911618346463662
aF0.014904502050318633
aF-0.016647524308465195
asS'ref_index'
p452
I0
sS'normalized_weight_list'
p453
(lp454
I1
aF-0.2270371566140118
aF-0.6629003196784985
aF0.29692072492196336
aF0.10228213880254929
aF0.12835973808612944
aF0.33564958659308353
aF0.031421199149906244
aF-0.088496446534196027
aF0.049994957533221834
aF-0.019139826635022974
aF0.0066730796845829261
aF-0.0041744942547176141
aF-0.0050911618346463662
aF0.014904502050318633
aF-0.016647524308465195
asS'step_size_list'
p455
(lp456
F1.0000000000000001e-05
aF-2.2703715661401182e-06
aF-6.6290031967849858e-06
aF2.9692072492196338e-06
aF1.022821388025493e-06
aF1.2835973808612946e-06
aF3.3564958659308355e-06
aF3.1421199149906247e-07
aF-8.8496446534196038e-07
aF4.9994957533221841e-07
aF-1.9139826635022974e-07
aF6.6730796845829265e-08
aF-4.1744942547176146e-08
aF-5.0911618346463663e-08
aF1.4904502050318634e-07
aF-1.6647524308465196e-07
asbsS'preferences'
p457
(dp458
g7
F1333032677.7769179
sg5
g6
sS'TunerGUI'
p459
(dp460
S'visible_column_name_list'
p461
(lp462
S'Group Name'
p463
aS'Knob Name'
p464
aS'Weight'
p465
aS'N.Weight'
p466
aS'Step Size'
p467
aS'sb'
p468
aS'Reading'
p469
aS'Setpoint'
p470
aS'Start Read'
p471
aS'Start Setp'
p472
asss.