(dp1
S'name'
p2
csip
_unpickle_type
p3
(S'PyQt4.QtCore'
p4
S'QString'
(VQH
p5
ttRp6
sS'config_description'
p7
S''
sS'version'
p8
S'0.1.0'
p9
sS'time_stamp'
p10
F1321378502.896517
sS'data'
p11
(iTunerUtils.knob
KnobGroupList
p12
(dp13
S'refKnobGroupName'
p14
S'QH3'
p15
sS'knobGroups'
p16
(lp17
(iTunerUtils.knob
KnobGroup
p18
(dp19
S'knobs'
p20
(lp21
(iTunerUtils.knob
Knob
p22
(dp23
S'symmetry'
p24
VA
sS'sequence'
p25
(I0
I0
tp26
sS'index'
p27
I12
sS'group'
p28
(lp29
VQUAD
p30
aVC30
p31
aVG2
p32
aVA
asS'family'
p33
VQUAD
p34
sS'pvrb_val_time_stamp'
p35
NsS'virtual'
p36
I0
sS'pv_unit'
p37
S''
sS'pvsp'
p38
(lp39
S'SR:C30-MG:G02A{Quad:H1}Fld-SP'
p40
asS'phylen'
p41
F0
sS'girder'
p42
VG2
p43
sS'pvsp_val'
p44
ccopy_reg
_reconstructor
p45
(ccothread.dbr
ca_float
p46
c__builtin__
float
p47
F-0.63300400000000001
tRp48
(dp49
S'ok'
p50
I01
sg2
S'SR:C30-MG:G02A{Quad:H1}Fld-SP'
p51
sbsS'pvrb_val'
p52
g45
(g46
g47
F-0.63285153716887155
tRp53
(dp54
g50
I01
sg2
S'SR:C30-MG:G02A{Quad:H1}Fld-I'
p55
sbsS'devname'
p56
VQH1G2C30A
p57
sS'elem_name'
p58
VQH1G2C30A
p59
sS'field_name'
p60
S'value'
p61
sg2
VQH1G2C30A.value
p62
sS'pvrb'
p63
(lp64
S'SR:C30-MG:G02A{Quad:H1}Fld-I'
p65
asS'pvsp_val_time_stamp'
p66
NsS'cell'
p67
VC30
p68
sS'length'
p69
F0.27500000000000002
sS'sb'
p70
F5.0124999999999993
sS'se'
p71
F5.2874999999999996
sba(iTunerUtils.knob
Knob
p72
(dp73
g24
VB
sg25
g26
sg27
I205
sg28
(lp74
VQUAD
p75
aVC01
p76
aVG6
p77
aVB
asg33
VQUAD
p78
sg35
Nsg36
I0
sg37
S''
sg38
(lp79
S'SR:C01-MG:G06B{Quad:H1}Fld-SP'
p80
asg41
F0
sg42
VG6
p81
sg44
g45
(g46
g47
F-0.63300400000000001
tRp82
(dp83
g50
I01
sg2
S'SR:C01-MG:G06B{Quad:H1}Fld-SP'
p84
sbsg52
g45
(g46
g47
F-0.6329749118555581
tRp85
(dp86
g50
I01
sg2
S'SR:C01-MG:G06B{Quad:H1}Fld-I'
p87
sbsg56
VQH1G6C01B
p88
sg58
VQH1G6C01B
p89
sg60
g61
sg2
VQH1G6C01B.value
p90
sg63
(lp91
S'SR:C01-MG:G06B{Quad:H1}Fld-I'
p92
asg66
Nsg67
VC01
p93
sg69
F0.27500000000000002
sg70
F47.509700000000002
sg71
F47.784700000000001
sba(iTunerUtils.knob
Knob
p94
(dp95
g24
VA
sg25
g26
sg27
I228
sg28
(lp96
VQUAD
p97
aVC02
p98
aVG2
p99
aVA
asg33
VQUAD
p100
sg35
Nsg36
I0
sg37
S''
sg38
(lp101
S'SR:C02-MG:G02A{Quad:H1}Fld-SP'
p102
asg41
F0
sg42
VG2
p103
sg44
g45
(g46
g47
F-0.63300400000000001
tRp104
(dp105
g50
I01
sg2
S'SR:C02-MG:G02A{Quad:H1}Fld-SP'
p106
sbsg52
g45
(g46
g47
F-0.63288965166927602
tRp107
(dp108
g50
I01
sg2
S'SR:C02-MG:G02A{Quad:H1}Fld-I'
p109
sbsg56
VQH1G2C02A
p110
sg58
VQH1G2C02A
p111
sg60
g61
sg2
VQH1G2C02A.value
p112
sg63
(lp113
S'SR:C02-MG:G02A{Quad:H1}Fld-I'
p114
asg66
Nsg67
VC02
p115
sg69
F0.27500000000000002
sg70
F57.809699999999999
sg71
F58.084699999999998
sba(iTunerUtils.knob
Knob
p116
(dp117
g24
VB
sg25
g26
sg27
I421
sg28
(lp118
VQUAD
p119
aVC03
p120
aVG6
p121
aVB
asg33
VQUAD
p122
sg35
Nsg36
I0
sg37
S''
sg38
(lp123
S'SR:C03-MG:G06B{Quad:H1}Fld-SP'
p124
asg41
F0
sg42
VG6
p125
sg44
g45
(g46
g47
F-0.63300400000000001
tRp126
(dp127
g50
I01
sg2
S'SR:C03-MG:G06B{Quad:H1}Fld-SP'
p128
sbsg52
g45
(g46
g47
F-0.63283937646030364
tRp129
(dp130
g50
I01
sg2
S'SR:C03-MG:G06B{Quad:H1}Fld-I'
p131
sbsg56
VQH1G6C03B
p132
sg58
VQH1G6C03B
p133
sg60
g61
sg2
VQH1G6C03B.value
p134
sg63
(lp135
S'SR:C03-MG:G06B{Quad:H1}Fld-I'
p136
asg66
Nsg67
VC03
p137
sg69
F0.27500000000000002
sg70
F100.30699999999999
sg71
F100.58199999999999
sba(iTunerUtils.knob
Knob
p138
(dp139
g24
VA
sg25
g26
sg27
I444
sg28
(lp140
VQUAD
p141
aVC04
p142
aVG2
p143
aVA
asg33
VQUAD
p144
sg35
Nsg36
I0
sg37
S''
sg38
(lp145
S'SR:C04-MG:G02A{Quad:H1}Fld-SP'
p146
asg41
F0
sg42
VG2
p147
sg44
g45
(g46
g47
F-0.63300400000000001
tRp148
(dp149
g50
I01
sg2
S'SR:C04-MG:G02A{Quad:H1}Fld-SP'
p150
sbsg52
g45
(g46
g47
F-0.6327574486365759
tRp151
(dp152
g50
I01
sg2
S'SR:C04-MG:G02A{Quad:H1}Fld-I'
p153
sbsg56
VQH1G2C04A
p154
sg58
VQH1G2C04A
p155
sg60
g61
sg2
VQH1G2C04A.value
p156
sg63
(lp157
S'SR:C04-MG:G02A{Quad:H1}Fld-I'
p158
asg66
Nsg67
VC04
p159
sg69
F0.27500000000000002
sg70
F110.607
sg71
F110.88200000000001
sba(iTunerUtils.knob
Knob
p160
(dp161
g24
VB
sg25
g26
sg27
I637
sg28
(lp162
VQUAD
p163
aVC05
p164
aVG6
p165
aVB
asg33
VQUAD
p166
sg35
Nsg36
I0
sg37
S''
sg38
(lp167
S'SR:C05-MG:G06B{Quad:H1}Fld-SP'
p168
asg41
F0
sg42
VG6
p169
sg44
g45
(g46
g47
F-0.63300400000000001
tRp170
(dp171
g50
I01
sg2
S'SR:C05-MG:G06B{Quad:H1}Fld-SP'
p172
sbsg52
g45
(g46
g47
F-0.63305091869886321
tRp173
(dp174
g50
I01
sg2
S'SR:C05-MG:G06B{Quad:H1}Fld-I'
p175
sbsg56
VQH1G6C05B
p176
sg58
VQH1G6C05B
p177
sg60
g61
sg2
VQH1G6C05B.value
p178
sg63
(lp179
S'SR:C05-MG:G06B{Quad:H1}Fld-I'
p180
asg66
Nsg67
VC05
p181
sg69
F0.27500000000000002
sg70
F153.10399999999998
sg71
F153.37899999999999
sba(iTunerUtils.knob
Knob
p182
(dp183
g24
VA
sg25
g26
sg27
I660
sg28
(lp184
VQUAD
p185
aVC06
p186
aVG2
p187
aVA
asg33
VQUAD
p188
sg35
Nsg36
I0
sg37
S''
sg38
(lp189
S'SR:C06-MG:G02A{Quad:H1}Fld-SP'
p190
asg41
F0
sg42
VG2
p191
sg44
g45
(g46
g47
F-0.63300400000000001
tRp192
(dp193
g50
I01
sg2
S'SR:C06-MG:G02A{Quad:H1}Fld-SP'
p194
sbsg52
g45
(g46
g47
F-0.63287108702919048
tRp195
(dp196
g50
I01
sg2
S'SR:C06-MG:G02A{Quad:H1}Fld-I'
p197
sbsg56
VQH1G2C06A
p198
sg58
VQH1G2C06A
p199
sg60
g61
sg2
VQH1G2C06A.value
p200
sg63
(lp201
S'SR:C06-MG:G02A{Quad:H1}Fld-I'
p202
asg66
Nsg67
VC06
p203
sg69
F0.27500000000000002
sg70
F163.404
sg71
F163.679
sba(iTunerUtils.knob
Knob
p204
(dp205
g24
VB
sg25
g26
sg27
I853
sg28
(lp206
VQUAD
p207
aVC07
p208
aVG6
p209
aVB
asg33
VQUAD
p210
sg35
Nsg36
I0
sg37
S''
sg38
(lp211
S'SR:C07-MG:G06B{Quad:H1}Fld-SP'
p212
asg41
F0
sg42
VG6
p213
sg44
g45
(g46
g47
F-0.63300400000000001
tRp214
(dp215
g50
I01
sg2
S'SR:C07-MG:G06B{Quad:H1}Fld-SP'
p216
sbsg52
g45
(g46
g47
F-0.63317247748943317
tRp217
(dp218
g50
I01
sg2
S'SR:C07-MG:G06B{Quad:H1}Fld-I'
p219
sbsg56
VQH1G6C07B
p220
sg58
VQH1G6C07B
p221
sg60
g61
sg2
VQH1G6C07B.value
p222
sg63
(lp223
S'SR:C07-MG:G06B{Quad:H1}Fld-I'
p224
asg66
Nsg67
VC07
p225
sg69
F0.27500000000000002
sg70
F205.90099999999998
sg71
F206.17599999999999
sba(iTunerUtils.knob
Knob
p226
(dp227
g24
VA
sg25
g26
sg27
I876
sg28
(lp228
VQUAD
p229
aVC08
p230
aVG2
p231
aVA
asg33
VQUAD
p232
sg35
Nsg36
I0
sg37
S''
sg38
(lp233
S'SR:C08-MG:G02A{Quad:H1}Fld-SP'
p234
asg41
F0
sg42
VG2
p235
sg44
g45
(g46
g47
F-0.63300400000000001
tRp236
(dp237
g50
I01
sg2
S'SR:C08-MG:G02A{Quad:H1}Fld-SP'
p238
sbsg52
g45
(g46
g47
F-0.6330415687656672
tRp239
(dp240
g50
I01
sg2
S'SR:C08-MG:G02A{Quad:H1}Fld-I'
p241
sbsg56
VQH1G2C08A
p242
sg58
VQH1G2C08A
p243
sg60
g61
sg2
VQH1G2C08A.value
p244
sg63
(lp245
S'SR:C08-MG:G02A{Quad:H1}Fld-I'
p246
asg66
Nsg67
VC08
p247
sg69
F0.27500000000000002
sg70
F216.20099999999999
sg71
F216.476
sba(iTunerUtils.knob
Knob
p248
(dp249
g24
VB
sg25
g26
sg27
I1069
sg28
(lp250
VQUAD
p251
aVC09
p252
aVG6
p253
aVB
asg33
VQUAD
p254
sg35
Nsg36
I0
sg37
S''
sg38
(lp255
S'SR:C09-MG:G06B{Quad:H1}Fld-SP'
p256
asg41
F0
sg42
VG6
p257
sg44
g45
(g46
g47
F-0.63300400000000001
tRp258
(dp259
g50
I01
sg2
S'SR:C09-MG:G06B{Quad:H1}Fld-SP'
p260
sbsg52
g45
(g46
g47
F-0.63286606433780423
tRp261
(dp262
g50
I01
sg2
S'SR:C09-MG:G06B{Quad:H1}Fld-I'
p263
sbsg56
VQH1G6C09B
p264
sg58
VQH1G6C09B
p265
sg60
g61
sg2
VQH1G6C09B.value
p266
sg63
(lp267
S'SR:C09-MG:G06B{Quad:H1}Fld-I'
p268
asg66
Nsg67
VC09
p269
sg69
F0.27500000000000002
sg70
F258.69800000000004
sg71
F258.97300000000001
sba(iTunerUtils.knob
Knob
p270
(dp271
g24
VA
sg25
g26
sg27
I1092
sg28
(lp272
VQUAD
p273
aVC10
p274
aVG2
p275
aVA
asg33
VQUAD
p276
sg35
Nsg36
I0
sg37
S''
sg38
(lp277
S'SR:C10-MG:G02A{Quad:H1}Fld-SP'
p278
asg41
F0
sg42
VG2
p279
sg44
g45
(g46
g47
F-0.63300400000000001
tRp280
(dp281
g50
I01
sg2
S'SR:C10-MG:G02A{Quad:H1}Fld-SP'
p282
sbsg52
g45
(g46
g47
F-0.6332685268031738
tRp283
(dp284
g50
I01
sg2
S'SR:C10-MG:G02A{Quad:H1}Fld-I'
p285
sbsg56
VQH1G2C10A
p286
sg58
VQH1G2C10A
p287
sg60
g61
sg2
VQH1G2C10A.value
p288
sg63
(lp289
S'SR:C10-MG:G02A{Quad:H1}Fld-I'
p290
asg66
Nsg67
VC10
p291
sg69
F0.27500000000000002
sg70
F268.99800000000005
sg71
F269.27300000000002
sba(iTunerUtils.knob
Knob
p292
(dp293
g24
VB
sg25
g26
sg27
I1285
sg28
(lp294
VQUAD
p295
aVC11
p296
aVG6
p297
aVB
asg33
VQUAD
p298
sg35
Nsg36
I0
sg37
S''
sg38
(lp299
S'SR:C11-MG:G06B{Quad:H1}Fld-SP'
p300
asg41
F0
sg42
VG6
p301
sg44
g45
(g46
g47
F-0.63300400000000001
tRp302
(dp303
g50
I01
sg2
S'SR:C11-MG:G06B{Quad:H1}Fld-SP'
p304
sbsg52
g45
(g46
g47
F-0.63284150144512097
tRp305
(dp306
g50
I01
sg2
S'SR:C11-MG:G06B{Quad:H1}Fld-I'
p307
sbsg56
VQH1G6C11B
p308
sg58
VQH1G6C11B
p309
sg60
g61
sg2
VQH1G6C11B.value
p310
sg63
(lp311
S'SR:C11-MG:G06B{Quad:H1}Fld-I'
p312
asg66
Nsg67
VC11
p313
sg69
F0.27500000000000002
sg70
F311.49600000000004
sg71
F311.77100000000002
sba(iTunerUtils.knob
Knob
p314
(dp315
g24
VA
sg25
g26
sg27
I1308
sg28
(lp316
VQUAD
p317
aVC12
p318
aVG2
p319
aVA
asg33
VQUAD
p320
sg35
Nsg36
I0
sg37
S''
sg38
(lp321
S'SR:C12-MG:G02A{Quad:H1}Fld-SP'
p322
asg41
F0
sg42
VG2
p323
sg44
g45
(g46
g47
F-0.63300400000000001
tRp324
(dp325
g50
I01
sg2
S'SR:C12-MG:G02A{Quad:H1}Fld-SP'
p326
sbsg52
g45
(g46
g47
F-0.63314540325105662
tRp327
(dp328
g50
I01
sg2
S'SR:C12-MG:G02A{Quad:H1}Fld-I'
p329
sbsg56
VQH1G2C12A
p330
sg58
VQH1G2C12A
p331
sg60
g61
sg2
VQH1G2C12A.value
p332
sg63
(lp333
S'SR:C12-MG:G02A{Quad:H1}Fld-I'
p334
asg66
Nsg67
VC12
p335
sg69
F0.27500000000000002
sg70
F321.79600000000005
sg71
F322.07100000000003
sba(iTunerUtils.knob
Knob
p336
(dp337
g24
VB
sg25
g26
sg27
I1501
sg28
(lp338
VQUAD
p339
aVC13
p340
aVG6
p341
aVB
asg33
VQUAD
p342
sg35
Nsg36
I0
sg37
S''
sg38
(lp343
S'SR:C13-MG:G06B{Quad:H1}Fld-SP'
p344
asg41
F0
sg42
VG6
p345
sg44
g45
(g46
g47
F-0.63300400000000001
tRp346
(dp347
g50
I01
sg2
S'SR:C13-MG:G06B{Quad:H1}Fld-SP'
p348
sbsg52
g45
(g46
g47
F-0.63328297669993139
tRp349
(dp350
g50
I01
sg2
S'SR:C13-MG:G06B{Quad:H1}Fld-I'
p351
sbsg56
VQH1G6C13B
p352
sg58
VQH1G6C13B
p353
sg60
g61
sg2
VQH1G6C13B.value
p354
sg63
(lp355
S'SR:C13-MG:G06B{Quad:H1}Fld-I'
p356
asg66
Nsg67
VC13
p357
sg69
F0.27500000000000002
sg70
F364.29300000000001
sg71
F364.56799999999998
sba(iTunerUtils.knob
Knob
p358
(dp359
g24
VA
sg25
g26
sg27
I1524
sg28
(lp360
VQUAD
p361
aVC14
p362
aVG2
p363
aVA
asg33
VQUAD
p364
sg35
Nsg36
I0
sg37
S''
sg38
(lp365
S'SR:C14-MG:G02A{Quad:H1}Fld-SP'
p366
asg41
F0
sg42
VG2
p367
sg44
g45
(g46
g47
F-0.63300400000000001
tRp368
(dp369
g50
I01
sg2
S'SR:C14-MG:G02A{Quad:H1}Fld-SP'
p370
sbsg52
g45
(g46
g47
F-0.63273417039380486
tRp371
(dp372
g50
I01
sg2
S'SR:C14-MG:G02A{Quad:H1}Fld-I'
p373
sbsg56
VQH1G2C14A
p374
sg58
VQH1G2C14A
p375
sg60
g61
sg2
VQH1G2C14A.value
p376
sg63
(lp377
S'SR:C14-MG:G02A{Quad:H1}Fld-I'
p378
asg66
Nsg67
VC14
p379
sg69
F0.27500000000000002
sg70
F374.59300000000002
sg71
F374.86799999999999
sba(iTunerUtils.knob
Knob
p380
(dp381
g24
VB
sg25
g26
sg27
I1717
sg28
(lp382
VQUAD
p383
aVC15
p384
aVG6
p385
aVB
asg33
VQUAD
p386
sg35
Nsg36
I0
sg37
S''
sg38
(lp387
S'SR:C15-MG:G06B{Quad:H1}Fld-SP'
p388
asg41
F0
sg42
VG6
p389
sg44
g45
(g46
g47
F-0.63300400000000001
tRp390
(dp391
g50
I01
sg2
S'SR:C15-MG:G06B{Quad:H1}Fld-SP'
p392
sbsg52
g45
(g46
g47
F-0.6329969634025483
tRp393
(dp394
g50
I01
sg2
S'SR:C15-MG:G06B{Quad:H1}Fld-I'
p395
sbsg56
VQH1G6C15B
p396
sg58
VQH1G6C15B
p397
sg60
g61
sg2
VQH1G6C15B.value
p398
sg63
(lp399
S'SR:C15-MG:G06B{Quad:H1}Fld-I'
p400
asg66
Nsg67
VC15
p401
sg69
F0.27500000000000002
sg70
F417.09000000000003
sg71
F417.36500000000001
sba(iTunerUtils.knob
Knob
p402
(dp403
g24
VA
sg25
g26
sg27
I1740
sg28
(lp404
VQUAD
p405
aVC16
p406
aVG2
p407
aVA
asg33
VQUAD
p408
sg35
Nsg36
I0
sg37
S''
sg38
(lp409
S'SR:C16-MG:G02A{Quad:H1}Fld-SP'
p410
asg41
F0
sg42
VG2
p411
sg44
g45
(g46
g47
F-0.63300400000000001
tRp412
(dp413
g50
I01
sg2
S'SR:C16-MG:G02A{Quad:H1}Fld-SP'
p414
sbsg52
g45
(g46
g47
F-0.63282019364281683
tRp415
(dp416
g50
I01
sg2
S'SR:C16-MG:G02A{Quad:H1}Fld-I'
p417
sbsg56
VQH1G2C16A
p418
sg58
VQH1G2C16A
p419
sg60
g61
sg2
VQH1G2C16A.value
p420
sg63
(lp421
S'SR:C16-MG:G02A{Quad:H1}Fld-I'
p422
asg66
Nsg67
VC16
p423
sg69
F0.27500000000000002
sg70
F427.39000000000004
sg71
F427.66500000000002
sba(iTunerUtils.knob
Knob
p424
(dp425
g24
VB
sg25
g26
sg27
I1933
sg28
(lp426
VQUAD
p427
aVC17
p428
aVG6
p429
aVB
asg33
VQUAD
p430
sg35
Nsg36
I0
sg37
S''
sg38
(lp431
S'SR:C17-MG:G06B{Quad:H1}Fld-SP'
p432
asg41
F0
sg42
VG6
p433
sg44
g45
(g46
g47
F-0.63300400000000001
tRp434
(dp435
g50
I01
sg2
S'SR:C17-MG:G06B{Quad:H1}Fld-SP'
p436
sbsg52
g45
(g46
g47
F-0.63309759109266805
tRp437
(dp438
g50
I01
sg2
S'SR:C17-MG:G06B{Quad:H1}Fld-I'
p439
sbsg56
VQH1G6C17B
p440
sg58
VQH1G6C17B
p441
sg60
g61
sg2
VQH1G6C17B.value
p442
sg63
(lp443
S'SR:C17-MG:G06B{Quad:H1}Fld-I'
p444
asg66
Nsg67
VC17
p445
sg69
F0.27500000000000002
sg70
F469.887
sg71
F470.16199999999998
sba(iTunerUtils.knob
Knob
p446
(dp447
g24
VA
sg25
g26
sg27
I1956
sg28
(lp448
VQUAD
p449
aVC18
p450
aVG2
p451
aVA
asg33
VQUAD
p452
sg35
Nsg36
I0
sg37
S''
sg38
(lp453
S'SR:C18-MG:G02A{Quad:H1}Fld-SP'
p454
asg41
F0
sg42
VG2
p455
sg44
g45
(g46
g47
F-0.63300400000000001
tRp456
(dp457
g50
I01
sg2
S'SR:C18-MG:G02A{Quad:H1}Fld-SP'
p458
sbsg52
g45
(g46
g47
F-0.63304082502098113
tRp459
(dp460
g50
I01
sg2
S'SR:C18-MG:G02A{Quad:H1}Fld-I'
p461
sbsg56
VQH1G2C18A
p462
sg58
VQH1G2C18A
p463
sg60
g61
sg2
VQH1G2C18A.value
p464
sg63
(lp465
S'SR:C18-MG:G02A{Quad:H1}Fld-I'
p466
asg66
Nsg67
VC18
p467
sg69
F0.27500000000000002
sg70
F480.18700000000001
sg71
F480.46199999999999
sba(iTunerUtils.knob
Knob
p468
(dp469
g24
VB
sg25
g26
sg27
I2149
sg28
(lp470
VQUAD
p471
aVC19
p472
aVG6
p473
aVB
asg33
VQUAD
p474
sg35
Nsg36
I0
sg37
S''
sg38
(lp475
S'SR:C19-MG:G06B{Quad:H1}Fld-SP'
p476
asg41
F0
sg42
VG6
p477
sg44
g45
(g46
g47
F-0.63300400000000001
tRp478
(dp479
g50
I01
sg2
S'SR:C19-MG:G06B{Quad:H1}Fld-SP'
p480
sbsg52
g45
(g46
g47
F-0.63275057141298541
tRp481
(dp482
g50
I01
sg2
S'SR:C19-MG:G06B{Quad:H1}Fld-I'
p483
sbsg56
VQH1G6C19B
p484
sg58
VQH1G6C19B
p485
sg60
g61
sg2
VQH1G6C19B.value
p486
sg63
(lp487
S'SR:C19-MG:G06B{Quad:H1}Fld-I'
p488
asg66
Nsg67
VC19
p489
sg69
F0.27500000000000002
sg70
F522.68399999999997
sg71
F522.95899999999995
sba(iTunerUtils.knob
Knob
p490
(dp491
g24
VA
sg25
g26
sg27
I2172
sg28
(lp492
VQUAD
p493
aVC20
p494
aVG2
p495
aVA
asg33
VQUAD
p496
sg35
Nsg36
I0
sg37
S''
sg38
(lp497
S'SR:C20-MG:G02A{Quad:H1}Fld-SP'
p498
asg41
F0
sg42
VG2
p499
sg44
g45
(g46
g47
F-0.63300400000000001
tRp500
(dp501
g50
I01
sg2
S'SR:C20-MG:G02A{Quad:H1}Fld-SP'
p502
sbsg52
g45
(g46
g47
F-0.63288053355260554
tRp503
(dp504
g50
I01
sg2
S'SR:C20-MG:G02A{Quad:H1}Fld-I'
p505
sbsg56
VQH1G2C20A
p506
sg58
VQH1G2C20A
p507
sg60
g61
sg2
VQH1G2C20A.value
p508
sg63
(lp509
S'SR:C20-MG:G02A{Quad:H1}Fld-I'
p510
asg66
Nsg67
VC20
p511
sg69
F0.27500000000000002
sg70
F532.98400000000004
sg71
F533.25900000000001
sba(iTunerUtils.knob
Knob
p512
(dp513
g24
VB
sg25
g26
sg27
I2365
sg28
(lp514
VQUAD
p515
aVC21
p516
aVG6
p517
aVB
asg33
VQUAD
p518
sg35
Nsg36
I0
sg37
S''
sg38
(lp519
S'SR:C21-MG:G06B{Quad:H1}Fld-SP'
p520
asg41
F0
sg42
VG6
p521
sg44
g45
(g46
g47
F-0.63300400000000001
tRp522
(dp523
g50
I01
sg2
S'SR:C21-MG:G06B{Quad:H1}Fld-SP'
p524
sbsg52
g45
(g46
g47
F-0.6329992815678035
tRp525
(dp526
g50
I01
sg2
S'SR:C21-MG:G06B{Quad:H1}Fld-I'
p527
sbsg56
VQH1G6C21B
p528
sg58
VQH1G6C21B
p529
sg60
g61
sg2
VQH1G6C21B.value
p530
sg63
(lp531
S'SR:C21-MG:G06B{Quad:H1}Fld-I'
p532
asg66
Nsg67
VC21
p533
sg69
F0.27500000000000002
sg70
F575.48199999999997
sg71
F575.75699999999995
sba(iTunerUtils.knob
Knob
p534
(dp535
g24
VA
sg25
g26
sg27
I2388
sg28
(lp536
VQUAD
p537
aVC22
p538
aVG2
p539
aVA
asg33
VQUAD
p540
sg35
Nsg36
I0
sg37
S''
sg38
(lp541
S'SR:C22-MG:G02A{Quad:H1}Fld-SP'
p542
asg41
F0
sg42
VG2
p543
sg44
g45
(g46
g47
F-0.63300400000000001
tRp544
(dp545
g50
I01
sg2
S'SR:C22-MG:G02A{Quad:H1}Fld-SP'
p546
sbsg52
g45
(g46
g47
F-0.63331149013257038
tRp547
(dp548
g50
I01
sg2
S'SR:C22-MG:G02A{Quad:H1}Fld-I'
p549
sbsg56
VQH1G2C22A
p550
sg58
VQH1G2C22A
p551
sg60
g61
sg2
VQH1G2C22A.value
p552
sg63
(lp553
S'SR:C22-MG:G02A{Quad:H1}Fld-I'
p554
asg66
Nsg67
VC22
p555
sg69
F0.27500000000000002
sg70
F585.78200000000004
sg71
F586.05700000000002
sba(iTunerUtils.knob
Knob
p556
(dp557
g24
VB
sg25
g26
sg27
I2581
sg28
(lp558
VQUAD
p559
aVC23
p560
aVG6
p561
aVB
asg33
VQUAD
p562
sg35
Nsg36
I0
sg37
S''
sg38
(lp563
S'SR:C23-MG:G06B{Quad:H1}Fld-SP'
p564
asg41
F0
sg42
VG6
p565
sg44
g45
(g46
g47
F-0.63300400000000001
tRp566
(dp567
g50
I01
sg2
S'SR:C23-MG:G06B{Quad:H1}Fld-SP'
p568
sbsg52
g45
(g46
g47
F-0.63291166458017856
tRp569
(dp570
g50
I01
sg2
S'SR:C23-MG:G06B{Quad:H1}Fld-I'
p571
sbsg56
VQH1G6C23B
p572
sg58
VQH1G6C23B
p573
sg60
g61
sg2
VQH1G6C23B.value
p574
sg63
(lp575
S'SR:C23-MG:G06B{Quad:H1}Fld-I'
p576
asg66
Nsg67
VC23
p577
sg69
F0.27500000000000002
sg70
F628.279
sg71
F628.55399999999997
sba(iTunerUtils.knob
Knob
p578
(dp579
g24
VA
sg25
g26
sg27
I2604
sg28
(lp580
VQUAD
p581
aVC24
p582
aVG2
p583
aVA
asg33
VQUAD
p584
sg35
Nsg36
I0
sg37
S''
sg38
(lp585
S'SR:C24-MG:G02A{Quad:H1}Fld-SP'
p586
asg41
F0
sg42
VG2
p587
sg44
g45
(g46
g47
F-0.63300400000000001
tRp588
(dp589
g50
I01
sg2
S'SR:C24-MG:G02A{Quad:H1}Fld-SP'
p590
sbsg52
g45
(g46
g47
F-0.63313109823962765
tRp591
(dp592
g50
I01
sg2
S'SR:C24-MG:G02A{Quad:H1}Fld-I'
p593
sbsg56
VQH1G2C24A
p594
sg58
VQH1G2C24A
p595
sg60
g61
sg2
VQH1G2C24A.value
p596
sg63
(lp597
S'SR:C24-MG:G02A{Quad:H1}Fld-I'
p598
asg66
Nsg67
VC24
p599
sg69
F0.27500000000000002
sg70
F638.57900000000006
sg71
F638.85400000000004
sba(iTunerUtils.knob
Knob
p600
(dp601
g24
VB
sg25
g26
sg27
I2797
sg28
(lp602
VQUAD
p603
aVC25
p604
aVG6
p605
aVB
asg33
VQUAD
p606
sg35
Nsg36
I0
sg37
S''
sg38
(lp607
S'SR:C25-MG:G06B{Quad:H1}Fld-SP'
p608
asg41
F0
sg42
VG6
p609
sg44
g45
(g46
g47
F-0.63300400000000001
tRp610
(dp611
g50
I01
sg2
S'SR:C25-MG:G06B{Quad:H1}Fld-SP'
p612
sbsg52
g45
(g46
g47
F-0.63275198163018231
tRp613
(dp614
g50
I01
sg2
S'SR:C25-MG:G06B{Quad:H1}Fld-I'
p615
sbsg56
VQH1G6C25B
p616
sg58
VQH1G6C25B
p617
sg60
g61
sg2
VQH1G6C25B.value
p618
sg63
(lp619
S'SR:C25-MG:G06B{Quad:H1}Fld-I'
p620
asg66
Nsg67
VC25
p621
sg69
F0.27500000000000002
sg70
F681.07600000000002
sg71
F681.351
sba(iTunerUtils.knob
Knob
p622
(dp623
g24
VA
sg25
g26
sg27
I2820
sg28
(lp624
VQUAD
p625
aVC26
p626
aVG2
p627
aVA
asg33
VQUAD
p628
sg35
Nsg36
I0
sg37
S''
sg38
(lp629
S'SR:C26-MG:G02A{Quad:H1}Fld-SP'
p630
asg41
F0
sg42
VG2
p631
sg44
g45
(g46
g47
F-0.63300400000000001
tRp632
(dp633
g50
I01
sg2
S'SR:C26-MG:G02A{Quad:H1}Fld-SP'
p634
sbsg52
g45
(g46
g47
F-0.63308972864884416
tRp635
(dp636
g50
I01
sg2
S'SR:C26-MG:G02A{Quad:H1}Fld-I'
p637
sbsg56
VQH1G2C26A
p638
sg58
VQH1G2C26A
p639
sg60
g61
sg2
VQH1G2C26A.value
p640
sg63
(lp641
S'SR:C26-MG:G02A{Quad:H1}Fld-I'
p642
asg66
Nsg67
VC26
p643
sg69
F0.27500000000000002
sg70
F691.37599999999998
sg71
F691.65099999999995
sba(iTunerUtils.knob
Knob
p644
(dp645
g24
VB
sg25
g26
sg27
I3013
sg28
(lp646
VQUAD
p647
aVC27
p648
aVG6
p649
aVB
asg33
VQUAD
p650
sg35
Nsg36
I0
sg37
S''
sg38
(lp651
S'SR:C27-MG:G06B{Quad:H1}Fld-SP'
p652
asg41
F0
sg42
VG6
p653
sg44
g45
(g46
g47
F-0.63300400000000001
tRp654
(dp655
g50
I01
sg2
S'SR:C27-MG:G06B{Quad:H1}Fld-SP'
p656
sbsg52
g45
(g46
g47
F-0.6332005949021744
tRp657
(dp658
g50
I01
sg2
S'SR:C27-MG:G06B{Quad:H1}Fld-I'
p659
sbsg56
VQH1G6C27B
p660
sg58
VQH1G6C27B
p661
sg60
g61
sg2
VQH1G6C27B.value
p662
sg63
(lp663
S'SR:C27-MG:G06B{Quad:H1}Fld-I'
p664
asg66
Nsg67
VC27
p665
sg69
F0.27500000000000002
sg70
F733.87300000000005
sg71
F734.14800000000002
sba(iTunerUtils.knob
Knob
p666
(dp667
g24
VA
sg25
g26
sg27
I3036
sg28
(lp668
VQUAD
p669
aVC28
p670
aVG2
p671
aVA
asg33
VQUAD
p672
sg35
Nsg36
I0
sg37
S''
sg38
(lp673
S'SR:C28-MG:G02A{Quad:H1}Fld-SP'
p674
asg41
F0
sg42
VG2
p675
sg44
g45
(g46
g47
F-0.63300400000000001
tRp676
(dp677
g50
I01
sg2
S'SR:C28-MG:G02A{Quad:H1}Fld-SP'
p678
sbsg52
g45
(g46
g47
F-0.6329895935688411
tRp679
(dp680
g50
I01
sg2
S'SR:C28-MG:G02A{Quad:H1}Fld-I'
p681
sbsg56
VQH1G2C28A
p682
sg58
VQH1G2C28A
p683
sg60
g61
sg2
VQH1G2C28A.value
p684
sg63
(lp685
S'SR:C28-MG:G02A{Quad:H1}Fld-I'
p686
asg66
Nsg67
VC28
p687
sg69
F0.27500000000000002
sg70
F744.173
sg71
F744.44799999999998
sba(iTunerUtils.knob
Knob
p688
(dp689
g24
VB
sg25
g26
sg27
I3233
sg28
(lp690
VQUAD
p691
aVC29
p692
aVG6
p693
aVB
asg33
VQUAD
p694
sg35
Nsg36
I0
sg37
S''
sg38
(lp695
S'SR:C29-MG:G06B{Quad:H1}Fld-SP'
p696
asg41
F0
sg42
VG6
p697
sg44
g45
(g46
g47
F-0.63300400000000001
tRp698
(dp699
g50
I01
sg2
S'SR:C29-MG:G06B{Quad:H1}Fld-SP'
p700
sbsg52
g45
(g46
g47
F-0.63284337529536894
tRp701
(dp702
g50
I01
sg2
S'SR:C29-MG:G06B{Quad:H1}Fld-I'
p703
sbsg56
VQH1G6C29B
p704
sg58
VQH1G6C29B
p705
sg60
g61
sg2
VQH1G6C29B.value
p706
sg63
(lp707
S'SR:C29-MG:G06B{Quad:H1}Fld-I'
p708
asg66
Nsg67
VC29
p709
sg69
F0.27500000000000002
sg70
F786.67100000000005
sg71
F786.94600000000003
sbasg2
S'QH1'
p710
sS'weight'
p711
F1
sba(iTunerUtils.knob
KnobGroup
p712
(dp713
g20
(lp714
(iTunerUtils.knob
Knob
p715
(dp716
g24
VA
sg25
g26
sg27
I18
sg28
(lp717
VQUAD
p718
aVC30
p719
aVG2
p720
aVA
asg33
VQUAD
p721
sg35
Nsg36
I0
sg37
S''
sg38
(lp722
S'SR:C30-MG:G02A{Quad:H2}Fld-SP'
p723
asg41
F0
sg42
VG2
p724
sg44
g45
(g46
g47
F1.4776499999999999
tRp725
(dp726
g50
I01
sg2
S'SR:C30-MG:G02A{Quad:H2}Fld-SP'
p727
sbsg52
g45
(g46
g47
F1.4775156507587548
tRp728
(dp729
g50
I01
sg2
S'SR:C30-MG:G02A{Quad:H2}Fld-I'
p730
sbsg56
VQH2G2C30A
p731
sg58
VQH2G2C30A
p732
sg60
g61
sg2
VQH2G2C30A.value
p733
sg63
(lp734
S'SR:C30-MG:G02A{Quad:H2}Fld-I'
p735
asg66
Nsg67
VC30
p736
sg69
F0.44800000000000001
sg70
F6.0919999999999996
sg71
F6.54
sba(iTunerUtils.knob
Knob
p737
(dp738
g24
VB
sg25
g26
sg27
I199
sg28
(lp739
VQUAD
p740
aVC01
p741
aVG6
p742
aVB
asg33
VQUAD
p743
sg35
Nsg36
I0
sg37
S''
sg38
(lp744
S'SR:C01-MG:G06B{Quad:H2}Fld-SP'
p745
asg41
F0
sg42
VG6
p746
sg44
g45
(g46
g47
F1.4776499999999999
tRp747
(dp748
g50
I01
sg2
S'SR:C01-MG:G06B{Quad:H2}Fld-SP'
p749
sbsg52
g45
(g46
g47
F1.4781002170805675
tRp750
(dp751
g50
I01
sg2
S'SR:C01-MG:G06B{Quad:H2}Fld-I'
p752
sbsg56
VQH2G6C01B
p753
sg58
VQH2G6C01B
p754
sg60
g61
sg2
VQH2G6C01B.value
p755
sg63
(lp756
S'SR:C01-MG:G06B{Quad:H2}Fld-I'
p757
asg66
Nsg67
VC01
p758
sg69
F0.44800000000000001
sg70
F46.257199999999997
sg71
F46.705199999999998
sba(iTunerUtils.knob
Knob
p759
(dp760
g24
VA
sg25
g26
sg27
I234
sg28
(lp761
VQUAD
p762
aVC02
p763
aVG2
p764
aVA
asg33
VQUAD
p765
sg35
Nsg36
I0
sg37
S''
sg38
(lp766
S'SR:C02-MG:G02A{Quad:H2}Fld-SP'
p767
asg41
F0
sg42
VG2
p768
sg44
g45
(g46
g47
F1.4776499999999999
tRp769
(dp770
g50
I01
sg2
S'SR:C02-MG:G02A{Quad:H2}Fld-SP'
p771
sbsg52
g45
(g46
g47
F1.4776815101224536
tRp772
(dp773
g50
I01
sg2
S'SR:C02-MG:G02A{Quad:H2}Fld-I'
p774
sbsg56
VQH2G2C02A
p775
sg58
VQH2G2C02A
p776
sg60
g61
sg2
VQH2G2C02A.value
p777
sg63
(lp778
S'SR:C02-MG:G02A{Quad:H2}Fld-I'
p779
asg66
Nsg67
VC02
p780
sg69
F0.44800000000000001
sg70
F58.889200000000002
sg71
F59.337200000000003
sba(iTunerUtils.knob
Knob
p781
(dp782
g24
VB
sg25
g26
sg27
I415
sg28
(lp783
VQUAD
p784
aVC03
p785
aVG6
p786
aVB
asg33
VQUAD
p787
sg35
Nsg36
I0
sg37
S''
sg38
(lp788
S'SR:C03-MG:G06B{Quad:H2}Fld-SP'
p789
asg41
F0
sg42
VG6
p790
sg44
g45
(g46
g47
F1.4776499999999999
tRp791
(dp792
g50
I01
sg2
S'SR:C03-MG:G06B{Quad:H2}Fld-SP'
p793
sbsg52
g45
(g46
g47
F1.4779353723540856
tRp794
(dp795
g50
I01
sg2
S'SR:C03-MG:G06B{Quad:H2}Fld-I'
p796
sbsg56
VQH2G6C03B
p797
sg58
VQH2G6C03B
p798
sg60
g61
sg2
VQH2G6C03B.value
p799
sg63
(lp800
S'SR:C03-MG:G06B{Quad:H2}Fld-I'
p801
asg66
Nsg67
VC03
p802
sg69
F0.44800000000000001
sg70
F99.054400000000001
sg71
F99.502399999999994
sba(iTunerUtils.knob
Knob
p803
(dp804
g24
VA
sg25
g26
sg27
I450
sg28
(lp805
VQUAD
p806
aVC04
p807
aVG2
p808
aVA
asg33
VQUAD
p809
sg35
Nsg36
I0
sg37
S''
sg38
(lp810
S'SR:C04-MG:G02A{Quad:H2}Fld-SP'
p811
asg41
F0
sg42
VG2
p812
sg44
g45
(g46
g47
F1.4776499999999999
tRp813
(dp814
g50
I01
sg2
S'SR:C04-MG:G02A{Quad:H2}Fld-SP'
p815
sbsg52
g45
(g46
g47
F1.4780017747230487
tRp816
(dp817
g50
I01
sg2
S'SR:C04-MG:G02A{Quad:H2}Fld-I'
p818
sbsg56
VQH2G2C04A
p819
sg58
VQH2G2C04A
p820
sg60
g61
sg2
VQH2G2C04A.value
p821
sg63
(lp822
S'SR:C04-MG:G02A{Quad:H2}Fld-I'
p823
asg66
Nsg67
VC04
p824
sg69
F0.44800000000000001
sg70
F111.68600000000001
sg71
F112.134
sba(iTunerUtils.knob
Knob
p825
(dp826
g24
VB
sg25
g26
sg27
I631
sg28
(lp827
VQUAD
p828
aVC05
p829
aVG6
p830
aVB
asg33
VQUAD
p831
sg35
Nsg36
I0
sg37
S''
sg38
(lp832
S'SR:C05-MG:G06B{Quad:H2}Fld-SP'
p833
asg41
F0
sg42
VG6
p834
sg44
g45
(g46
g47
F1.4776499999999999
tRp835
(dp836
g50
I01
sg2
S'SR:C05-MG:G06B{Quad:H2}Fld-SP'
p837
sbsg52
g45
(g46
g47
F1.477369249882124
tRp838
(dp839
g50
I01
sg2
S'SR:C05-MG:G06B{Quad:H2}Fld-I'
p840
sbsg56
VQH2G6C05B
p841
sg58
VQH2G6C05B
p842
sg60
g61
sg2
VQH2G6C05B.value
p843
sg63
(lp844
S'SR:C05-MG:G06B{Quad:H2}Fld-I'
p845
asg66
Nsg67
VC05
p846
sg69
F0.44800000000000001
sg70
F151.852
sg71
F152.30000000000001
sba(iTunerUtils.knob
Knob
p847
(dp848
g24
VA
sg25
g26
sg27
I666
sg28
(lp849
VQUAD
p850
aVC06
p851
aVG2
p852
aVA
asg33
VQUAD
p853
sg35
Nsg36
I0
sg37
S''
sg38
(lp854
S'SR:C06-MG:G02A{Quad:H2}Fld-SP'
p855
asg41
F0
sg42
VG2
p856
sg44
g45
(g46
g47
F1.4776499999999999
tRp857
(dp858
g50
I01
sg2
S'SR:C06-MG:G02A{Quad:H2}Fld-SP'
p859
sbsg52
g45
(g46
g47
F1.4777658828439
tRp860
(dp861
g50
I01
sg2
S'SR:C06-MG:G02A{Quad:H2}Fld-I'
p862
sbsg56
VQH2G2C06A
p863
sg58
VQH2G2C06A
p864
sg60
g61
sg2
VQH2G2C06A.value
p865
sg63
(lp866
S'SR:C06-MG:G02A{Quad:H2}Fld-I'
p867
asg66
Nsg67
VC06
p868
sg69
F0.44800000000000001
sg70
F164.48399999999998
sg71
F164.93199999999999
sba(iTunerUtils.knob
Knob
p869
(dp870
g24
VB
sg25
g26
sg27
I847
sg28
(lp871
VQUAD
p872
aVC07
p873
aVG6
p874
aVB
asg33
VQUAD
p875
sg35
Nsg36
I0
sg37
S''
sg38
(lp876
S'SR:C07-MG:G06B{Quad:H2}Fld-SP'
p877
asg41
F0
sg42
VG6
p878
sg44
g45
(g46
g47
F1.4776499999999999
tRp879
(dp880
g50
I01
sg2
S'SR:C07-MG:G06B{Quad:H2}Fld-SP'
p881
sbsg52
g45
(g46
g47
F1.4779049106900892
tRp882
(dp883
g50
I01
sg2
S'SR:C07-MG:G06B{Quad:H2}Fld-I'
p884
sbsg56
VQH2G6C07B
p885
sg58
VQH2G6C07B
p886
sg60
g61
sg2
VQH2G6C07B.value
p887
sg63
(lp888
S'SR:C07-MG:G06B{Quad:H2}Fld-I'
p889
asg66
Nsg67
VC07
p890
sg69
F0.44800000000000001
sg70
F204.649
sg71
F205.09700000000001
sba(iTunerUtils.knob
Knob
p891
(dp892
g24
VA
sg25
g26
sg27
I882
sg28
(lp893
VQUAD
p894
aVC08
p895
aVG2
p896
aVA
asg33
VQUAD
p897
sg35
Nsg36
I0
sg37
S''
sg38
(lp898
S'SR:C08-MG:G02A{Quad:H2}Fld-SP'
p899
asg41
F0
sg42
VG2
p900
sg44
g45
(g46
g47
F1.4776499999999999
tRp901
(dp902
g50
I01
sg2
S'SR:C08-MG:G02A{Quad:H2}Fld-SP'
p903
sbsg52
g45
(g46
g47
F1.4776757154165714
tRp904
(dp905
g50
I01
sg2
S'SR:C08-MG:G02A{Quad:H2}Fld-I'
p906
sbsg56
VQH2G2C08A
p907
sg58
VQH2G2C08A
p908
sg60
g61
sg2
VQH2G2C08A.value
p909
sg63
(lp910
S'SR:C08-MG:G02A{Quad:H2}Fld-I'
p911
asg66
Nsg67
VC08
p912
sg69
F0.44800000000000001
sg70
F217.28100000000001
sg71
F217.72900000000001
sba(iTunerUtils.knob
Knob
p913
(dp914
g24
VB
sg25
g26
sg27
I1063
sg28
(lp915
VQUAD
p916
aVC09
p917
aVG6
p918
aVB
asg33
VQUAD
p919
sg35
Nsg36
I0
sg37
S''
sg38
(lp920
S'SR:C09-MG:G06B{Quad:H2}Fld-SP'
p921
asg41
F0
sg42
VG6
p922
sg44
g45
(g46
g47
F1.4776499999999999
tRp923
(dp924
g50
I01
sg2
S'SR:C09-MG:G06B{Quad:H2}Fld-SP'
p925
sbsg52
g45
(g46
g47
F1.4771567397539482
tRp926
(dp927
g50
I01
sg2
S'SR:C09-MG:G06B{Quad:H2}Fld-I'
p928
sbsg56
VQH2G6C09B
p929
sg58
VQH2G6C09B
p930
sg60
g61
sg2
VQH2G6C09B.value
p931
sg63
(lp932
S'SR:C09-MG:G06B{Quad:H2}Fld-I'
p933
asg66
Nsg67
VC09
p934
sg69
F0.44800000000000001
sg70
F257.44600000000003
sg71
F257.89400000000001
sba(iTunerUtils.knob
Knob
p935
(dp936
g24
VA
sg25
g26
sg27
I1098
sg28
(lp937
VQUAD
p938
aVC10
p939
aVG2
p940
aVA
asg33
VQUAD
p941
sg35
Nsg36
I0
sg37
S''
sg38
(lp942
S'SR:C10-MG:G02A{Quad:H2}Fld-SP'
p943
asg41
F0
sg42
VG2
p944
sg44
g45
(g46
g47
F1.4776499999999999
tRp945
(dp946
g50
I01
sg2
S'SR:C10-MG:G02A{Quad:H2}Fld-SP'
p947
sbsg52
g45
(g46
g47
F1.4770403495914397
tRp948
(dp949
g50
I01
sg2
S'SR:C10-MG:G02A{Quad:H2}Fld-I'
p950
sbsg56
VQH2G2C10A
p951
sg58
VQH2G2C10A
p952
sg60
g61
sg2
VQH2G2C10A.value
p953
sg63
(lp954
S'SR:C10-MG:G02A{Quad:H2}Fld-I'
p955
asg66
Nsg67
VC10
p956
sg69
F0.44800000000000001
sg70
F270.07800000000003
sg71
F270.52600000000001
sba(iTunerUtils.knob
Knob
p957
(dp958
g24
VB
sg25
g26
sg27
I1279
sg28
(lp959
VQUAD
p960
aVC11
p961
aVG6
p962
aVB
asg33
VQUAD
p963
sg35
Nsg36
I0
sg37
S''
sg38
(lp964
S'SR:C11-MG:G06B{Quad:H2}Fld-SP'
p965
asg41
F0
sg42
VG6
p966
sg44
g45
(g46
g47
F1.4776499999999999
tRp967
(dp968
g50
I01
sg2
S'SR:C11-MG:G06B{Quad:H2}Fld-SP'
p969
sbsg52
g45
(g46
g47
F1.4780225860597391
tRp970
(dp971
g50
I01
sg2
S'SR:C11-MG:G06B{Quad:H2}Fld-I'
p972
sbsg56
VQH2G6C11B
p973
sg58
VQH2G6C11B
p974
sg60
g61
sg2
VQH2G6C11B.value
p975
sg63
(lp976
S'SR:C11-MG:G06B{Quad:H2}Fld-I'
p977
asg66
Nsg67
VC11
p978
sg69
F0.44800000000000001
sg70
F310.24299999999999
sg71
F310.69099999999997
sba(iTunerUtils.knob
Knob
p979
(dp980
g24
VA
sg25
g26
sg27
I1314
sg28
(lp981
VQUAD
p982
aVC12
p983
aVG2
p984
aVA
asg33
VQUAD
p985
sg35
Nsg36
I0
sg37
S''
sg38
(lp986
S'SR:C12-MG:G02A{Quad:H2}Fld-SP'
p987
asg41
F0
sg42
VG2
p988
sg44
g45
(g46
g47
F1.4776499999999999
tRp989
(dp990
g50
I01
sg2
S'SR:C12-MG:G02A{Quad:H2}Fld-SP'
p991
sbsg52
g45
(g46
g47
F1.4772368059040968
tRp992
(dp993
g50
I01
sg2
S'SR:C12-MG:G02A{Quad:H2}Fld-I'
p994
sbsg56
VQH2G2C12A
p995
sg58
VQH2G2C12A
p996
sg60
g61
sg2
VQH2G2C12A.value
p997
sg63
(lp998
S'SR:C12-MG:G02A{Quad:H2}Fld-I'
p999
asg66
Nsg67
VC12
p1000
sg69
F0.44800000000000001
sg70
F322.875
sg71
F323.32299999999998
sba(iTunerUtils.knob
Knob
p1001
(dp1002
g24
VB
sg25
g26
sg27
I1495
sg28
(lp1003
VQUAD
p1004
aVC13
p1005
aVG6
p1006
aVB
asg33
VQUAD
p1007
sg35
Nsg36
I0
sg37
S''
sg38
(lp1008
S'SR:C13-MG:G06B{Quad:H2}Fld-SP'
p1009
asg41
F0
sg42
VG6
p1010
sg44
g45
(g46
g47
F1.4776499999999999
tRp1011
(dp1012
g50
I01
sg2
S'SR:C13-MG:G06B{Quad:H2}Fld-SP'
p1013
sbsg52
g45
(g46
g47
F1.4781787274536506
tRp1014
(dp1015
g50
I01
sg2
S'SR:C13-MG:G06B{Quad:H2}Fld-I'
p1016
sbsg56
VQH2G6C13B
p1017
sg58
VQH2G6C13B
p1018
sg60
g61
sg2
VQH2G6C13B.value
p1019
sg63
(lp1020
S'SR:C13-MG:G06B{Quad:H2}Fld-I'
p1021
asg66
Nsg67
VC13
p1022
sg69
F0.44800000000000001
sg70
F363.04000000000002
sg71
F363.488
sba(iTunerUtils.knob
Knob
p1023
(dp1024
g24
VA
sg25
g26
sg27
I1530
sg28
(lp1025
VQUAD
p1026
aVC14
p1027
aVG2
p1028
aVA
asg33
VQUAD
p1029
sg35
Nsg36
I0
sg37
S''
sg38
(lp1030
S'SR:C14-MG:G02A{Quad:H2}Fld-SP'
p1031
asg41
F0
sg42
VG2
p1032
sg44
g45
(g46
g47
F1.4776499999999999
tRp1033
(dp1034
g50
I01
sg2
S'SR:C14-MG:G02A{Quad:H2}Fld-SP'
p1035
sbsg52
g45
(g46
g47
F1.4774183808709085
tRp1036
(dp1037
g50
I01
sg2
S'SR:C14-MG:G02A{Quad:H2}Fld-I'
p1038
sbsg56
VQH2G2C14A
p1039
sg58
VQH2G2C14A
p1040
sg60
g61
sg2
VQH2G2C14A.value
p1041
sg63
(lp1042
S'SR:C14-MG:G02A{Quad:H2}Fld-I'
p1043
asg66
Nsg67
VC14
p1044
sg69
F0.44800000000000001
sg70
F375.67200000000003
sg71
F376.12
sba(iTunerUtils.knob
Knob
p1045
(dp1046
g24
VB
sg25
g26
sg27
I1711
sg28
(lp1047
VQUAD
p1048
aVC15
p1049
aVG6
p1050
aVB
asg33
VQUAD
p1051
sg35
Nsg36
I0
sg37
S''
sg38
(lp1052
S'SR:C15-MG:G06B{Quad:H2}Fld-SP'
p1053
asg41
F0
sg42
VG6
p1054
sg44
g45
(g46
g47
F1.4776499999999999
tRp1055
(dp1056
g50
I01
sg2
S'SR:C15-MG:G06B{Quad:H2}Fld-SP'
p1057
sbsg52
g45
(g46
g47
F1.4777669425761044
tRp1058
(dp1059
g50
I01
sg2
S'SR:C15-MG:G06B{Quad:H2}Fld-I'
p1060
sbsg56
VQH2G6C15B
p1061
sg58
VQH2G6C15B
p1062
sg60
g61
sg2
VQH2G6C15B.value
p1063
sg63
(lp1064
S'SR:C15-MG:G06B{Quad:H2}Fld-I'
p1065
asg66
Nsg67
VC15
p1066
sg69
F0.44800000000000001
sg70
F415.83800000000002
sg71
F416.286
sba(iTunerUtils.knob
Knob
p1067
(dp1068
g24
VA
sg25
g26
sg27
I1746
sg28
(lp1069
VQUAD
p1070
aVC16
p1071
aVG2
p1072
aVA
asg33
VQUAD
p1073
sg35
Nsg36
I0
sg37
S''
sg38
(lp1074
S'SR:C16-MG:G02A{Quad:H2}Fld-SP'
p1075
asg41
F0
sg42
VG2
p1076
sg44
g45
(g46
g47
F1.4776499999999999
tRp1077
(dp1078
g50
I01
sg2
S'SR:C16-MG:G02A{Quad:H2}Fld-SP'
p1079
sbsg52
g45
(g46
g47
F1.4781799901132981
tRp1080
(dp1081
g50
I01
sg2
S'SR:C16-MG:G02A{Quad:H2}Fld-I'
p1082
sbsg56
VQH2G2C16A
p1083
sg58
VQH2G2C16A
p1084
sg60
g61
sg2
VQH2G2C16A.value
p1085
sg63
(lp1086
S'SR:C16-MG:G02A{Quad:H2}Fld-I'
p1087
asg66
Nsg67
VC16
p1088
sg69
F0.44800000000000001
sg70
F428.47000000000003
sg71
F428.91800000000001
sba(iTunerUtils.knob
Knob
p1089
(dp1090
g24
VB
sg25
g26
sg27
I1927
sg28
(lp1091
VQUAD
p1092
aVC17
p1093
aVG6
p1094
aVB
asg33
VQUAD
p1095
sg35
Nsg36
I0
sg37
S''
sg38
(lp1096
S'SR:C17-MG:G06B{Quad:H2}Fld-SP'
p1097
asg41
F0
sg42
VG6
p1098
sg44
g45
(g46
g47
F1.4776499999999999
tRp1099
(dp1100
g50
I01
sg2
S'SR:C17-MG:G06B{Quad:H2}Fld-SP'
p1101
sbsg52
g45
(g46
g47
F1.4780987063984894
tRp1102
(dp1103
g50
I01
sg2
S'SR:C17-MG:G06B{Quad:H2}Fld-I'
p1104
sbsg56
VQH2G6C17B
p1105
sg58
VQH2G6C17B
p1106
sg60
g61
sg2
VQH2G6C17B.value
p1107
sg63
(lp1108
S'SR:C17-MG:G06B{Quad:H2}Fld-I'
p1109
asg66
Nsg67
VC17
p1110
sg69
F0.44800000000000001
sg70
F468.63500000000005
sg71
F469.08300000000003
sba(iTunerUtils.knob
Knob
p1111
(dp1112
g24
VA
sg25
g26
sg27
I1962
sg28
(lp1113
VQUAD
p1114
aVC18
p1115
aVG2
p1116
aVA
asg33
VQUAD
p1117
sg35
Nsg36
I0
sg37
S''
sg38
(lp1118
S'SR:C18-MG:G02A{Quad:H2}Fld-SP'
p1119
asg41
F0
sg42
VG2
p1120
sg44
g45
(g46
g47
F1.4776499999999999
tRp1121
(dp1122
g50
I01
sg2
S'SR:C18-MG:G02A{Quad:H2}Fld-SP'
p1123
sbsg52
g45
(g46
g47
F1.4783885544300754
tRp1124
(dp1125
g50
I01
sg2
S'SR:C18-MG:G02A{Quad:H2}Fld-I'
p1126
sbsg56
VQH2G2C18A
p1127
sg58
VQH2G2C18A
p1128
sg60
g61
sg2
VQH2G2C18A.value
p1129
sg63
(lp1130
S'SR:C18-MG:G02A{Quad:H2}Fld-I'
p1131
asg66
Nsg67
VC18
p1132
sg69
F0.44800000000000001
sg70
F481.267
sg71
F481.71499999999997
sba(iTunerUtils.knob
Knob
p1133
(dp1134
g24
VB
sg25
g26
sg27
I2143
sg28
(lp1135
VQUAD
p1136
aVC19
p1137
aVG6
p1138
aVB
asg33
VQUAD
p1139
sg35
Nsg36
I0
sg37
S''
sg38
(lp1140
S'SR:C19-MG:G06B{Quad:H2}Fld-SP'
p1141
asg41
F0
sg42
VG6
p1142
sg44
g45
(g46
g47
F1.4776499999999999
tRp1143
(dp1144
g50
I01
sg2
S'SR:C19-MG:G06B{Quad:H2}Fld-SP'
p1145
sbsg52
g45
(g46
g47
F1.4776624123952848
tRp1146
(dp1147
g50
I01
sg2
S'SR:C19-MG:G06B{Quad:H2}Fld-I'
p1148
sbsg56
VQH2G6C19B
p1149
sg58
VQH2G6C19B
p1150
sg60
g61
sg2
VQH2G6C19B.value
p1151
sg63
(lp1152
S'SR:C19-MG:G06B{Quad:H2}Fld-I'
p1153
asg66
Nsg67
VC19
p1154
sg69
F0.44800000000000001
sg70
F521.43200000000002
sg71
F521.88
sba(iTunerUtils.knob
Knob
p1155
(dp1156
g24
VA
sg25
g26
sg27
I2178
sg28
(lp1157
VQUAD
p1158
aVC20
p1159
aVG2
p1160
aVA
asg33
VQUAD
p1161
sg35
Nsg36
I0
sg37
S''
sg38
(lp1162
S'SR:C20-MG:G02A{Quad:H2}Fld-SP'
p1163
asg41
F0
sg42
VG2
p1164
sg44
g45
(g46
g47
F1.4776499999999999
tRp1165
(dp1166
g50
I01
sg2
S'SR:C20-MG:G02A{Quad:H2}Fld-SP'
p1167
sbsg52
g45
(g46
g47
F1.4769848827569236
tRp1168
(dp1169
g50
I01
sg2
S'SR:C20-MG:G02A{Quad:H2}Fld-I'
p1170
sbsg56
VQH2G2C20A
p1171
sg58
VQH2G2C20A
p1172
sg60
g61
sg2
VQH2G2C20A.value
p1173
sg63
(lp1174
S'SR:C20-MG:G02A{Quad:H2}Fld-I'
p1175
asg66
Nsg67
VC20
p1176
sg69
F0.44800000000000001
sg70
F534.06399999999996
sg71
F534.51199999999994
sba(iTunerUtils.knob
Knob
p1177
(dp1178
g24
VB
sg25
g26
sg27
I2359
sg28
(lp1179
VQUAD
p1180
aVC21
p1181
aVG6
p1182
aVB
asg33
VQUAD
p1183
sg35
Nsg36
I0
sg37
S''
sg38
(lp1184
S'SR:C21-MG:G06B{Quad:H2}Fld-SP'
p1185
asg41
F0
sg42
VG6
p1186
sg44
g45
(g46
g47
F1.4776499999999999
tRp1187
(dp1188
g50
I01
sg2
S'SR:C21-MG:G06B{Quad:H2}Fld-SP'
p1189
sbsg52
g45
(g46
g47
F1.4769804409006637
tRp1190
(dp1191
g50
I01
sg2
S'SR:C21-MG:G06B{Quad:H2}Fld-I'
p1192
sbsg56
VQH2G6C21B
p1193
sg58
VQH2G6C21B
p1194
sg60
g61
sg2
VQH2G6C21B.value
p1195
sg63
(lp1196
S'SR:C21-MG:G06B{Quad:H2}Fld-I'
p1197
asg66
Nsg67
VC21
p1198
sg69
F0.44800000000000001
sg70
F574.22900000000004
sg71
F574.67700000000002
sba(iTunerUtils.knob
Knob
p1199
(dp1200
g24
VA
sg25
g26
sg27
I2394
sg28
(lp1201
VQUAD
p1202
aVC22
p1203
aVG2
p1204
aVA
asg33
VQUAD
p1205
sg35
Nsg36
I0
sg37
S''
sg38
(lp1206
S'SR:C22-MG:G02A{Quad:H2}Fld-SP'
p1207
asg41
F0
sg42
VG2
p1208
sg44
g45
(g46
g47
F1.4776499999999999
tRp1209
(dp1210
g50
I01
sg2
S'SR:C22-MG:G02A{Quad:H2}Fld-SP'
p1211
sbsg52
g45
(g46
g47
F1.4775967766411078
tRp1212
(dp1213
g50
I01
sg2
S'SR:C22-MG:G02A{Quad:H2}Fld-I'
p1214
sbsg56
VQH2G2C22A
p1215
sg58
VQH2G2C22A
p1216
sg60
g61
sg2
VQH2G2C22A.value
p1217
sg63
(lp1218
S'SR:C22-MG:G02A{Quad:H2}Fld-I'
p1219
asg66
Nsg67
VC22
p1220
sg69
F0.44800000000000001
sg70
F586.86099999999999
sg71
F587.30899999999997
sba(iTunerUtils.knob
Knob
p1221
(dp1222
g24
VB
sg25
g26
sg27
I2575
sg28
(lp1223
VQUAD
p1224
aVC23
p1225
aVG6
p1226
aVB
asg33
VQUAD
p1227
sg35
Nsg36
I0
sg37
S''
sg38
(lp1228
S'SR:C23-MG:G06B{Quad:H2}Fld-SP'
p1229
asg41
F0
sg42
VG6
p1230
sg44
g45
(g46
g47
F1.4776499999999999
tRp1231
(dp1232
g50
I01
sg2
S'SR:C23-MG:G06B{Quad:H2}Fld-SP'
p1233
sbsg52
g45
(g46
g47
F1.4773988547413595
tRp1234
(dp1235
g50
I01
sg2
S'SR:C23-MG:G06B{Quad:H2}Fld-I'
p1236
sbsg56
VQH2G6C23B
p1237
sg58
VQH2G6C23B
p1238
sg60
g61
sg2
VQH2G6C23B.value
p1239
sg63
(lp1240
S'SR:C23-MG:G06B{Quad:H2}Fld-I'
p1241
asg66
Nsg67
VC23
p1242
sg69
F0.44800000000000001
sg70
F627.02600000000007
sg71
F627.47400000000005
sba(iTunerUtils.knob
Knob
p1243
(dp1244
g24
VA
sg25
g26
sg27
I2610
sg28
(lp1245
VQUAD
p1246
aVC24
p1247
aVG2
p1248
aVA
asg33
VQUAD
p1249
sg35
Nsg36
I0
sg37
S''
sg38
(lp1250
S'SR:C24-MG:G02A{Quad:H2}Fld-SP'
p1251
asg41
F0
sg42
VG2
p1252
sg44
g45
(g46
g47
F1.4776499999999999
tRp1253
(dp1254
g50
I01
sg2
S'SR:C24-MG:G02A{Quad:H2}Fld-SP'
p1255
sbsg52
g45
(g46
g47
F1.4782710594403752
tRp1256
(dp1257
g50
I01
sg2
S'SR:C24-MG:G02A{Quad:H2}Fld-I'
p1258
sbsg56
VQH2G2C24A
p1259
sg58
VQH2G2C24A
p1260
sg60
g61
sg2
VQH2G2C24A.value
p1261
sg63
(lp1262
S'SR:C24-MG:G02A{Quad:H2}Fld-I'
p1263
asg66
Nsg67
VC24
p1264
sg69
F0.44800000000000001
sg70
F639.65800000000002
sg71
F640.10599999999999
sba(iTunerUtils.knob
Knob
p1265
(dp1266
g24
VB
sg25
g26
sg27
I2791
sg28
(lp1267
VQUAD
p1268
aVC25
p1269
aVG6
p1270
aVB
asg33
VQUAD
p1271
sg35
Nsg36
I0
sg37
S''
sg38
(lp1272
S'SR:C25-MG:G06B{Quad:H2}Fld-SP'
p1273
asg41
F0
sg42
VG6
p1274
sg44
g45
(g46
g47
F1.4776499999999999
tRp1275
(dp1276
g50
I01
sg2
S'SR:C25-MG:G06B{Quad:H2}Fld-SP'
p1277
sbsg52
g45
(g46
g47
F1.476979493905928
tRp1278
(dp1279
g50
I01
sg2
S'SR:C25-MG:G06B{Quad:H2}Fld-I'
p1280
sbsg56
VQH2G6C25B
p1281
sg58
VQH2G6C25B
p1282
sg60
g61
sg2
VQH2G6C25B.value
p1283
sg63
(lp1284
S'SR:C25-MG:G06B{Quad:H2}Fld-I'
p1285
asg66
Nsg67
VC25
p1286
sg69
F0.44800000000000001
sg70
F679.82400000000007
sg71
F680.27200000000005
sba(iTunerUtils.knob
Knob
p1287
(dp1288
g24
VA
sg25
g26
sg27
I2826
sg28
(lp1289
VQUAD
p1290
aVC26
p1291
aVG2
p1292
aVA
asg33
VQUAD
p1293
sg35
Nsg36
I0
sg37
S''
sg38
(lp1294
S'SR:C26-MG:G02A{Quad:H2}Fld-SP'
p1295
asg41
F0
sg42
VG2
p1296
sg44
g45
(g46
g47
F1.4776499999999999
tRp1297
(dp1298
g50
I01
sg2
S'SR:C26-MG:G02A{Quad:H2}Fld-SP'
p1299
sbsg52
g45
(g46
g47
F1.4775923798798352
tRp1300
(dp1301
g50
I01
sg2
S'SR:C26-MG:G02A{Quad:H2}Fld-I'
p1302
sbsg56
VQH2G2C26A
p1303
sg58
VQH2G2C26A
p1304
sg60
g61
sg2
VQH2G2C26A.value
p1305
sg63
(lp1306
S'SR:C26-MG:G02A{Quad:H2}Fld-I'
p1307
asg66
Nsg67
VC26
p1308
sg69
F0.44800000000000001
sg70
F692.45600000000002
sg71
F692.904
sba(iTunerUtils.knob
Knob
p1309
(dp1310
g24
VB
sg25
g26
sg27
I3007
sg28
(lp1311
VQUAD
p1312
aVC27
p1313
aVG6
p1314
aVB
asg33
VQUAD
p1315
sg35
Nsg36
I0
sg37
S''
sg38
(lp1316
S'SR:C27-MG:G06B{Quad:H2}Fld-SP'
p1317
asg41
F0
sg42
VG6
p1318
sg44
g45
(g46
g47
F1.4776499999999999
tRp1319
(dp1320
g50
I01
sg2
S'SR:C27-MG:G06B{Quad:H2}Fld-SP'
p1321
sbsg52
g45
(g46
g47
F1.4779826769958799
tRp1322
(dp1323
g50
I01
sg2
S'SR:C27-MG:G06B{Quad:H2}Fld-I'
p1324
sbsg56
VQH2G6C27B
p1325
sg58
VQH2G6C27B
p1326
sg60
g61
sg2
VQH2G6C27B.value
p1327
sg63
(lp1328
S'SR:C27-MG:G06B{Quad:H2}Fld-I'
p1329
asg66
Nsg67
VC27
p1330
sg69
F0.44800000000000001
sg70
F732.62099999999998
sg71
F733.06899999999996
sba(iTunerUtils.knob
Knob
p1331
(dp1332
g24
VA
sg25
g26
sg27
I3042
sg28
(lp1333
VQUAD
p1334
aVC28
p1335
aVG2
p1336
aVA
asg33
VQUAD
p1337
sg35
Nsg36
I0
sg37
S''
sg38
(lp1338
S'SR:C28-MG:G02A{Quad:H2}Fld-SP'
p1339
asg41
F0
sg42
VG2
p1340
sg44
g45
(g46
g47
F1.4776499999999999
tRp1341
(dp1342
g50
I01
sg2
S'SR:C28-MG:G02A{Quad:H2}Fld-SP'
p1343
sbsg52
g45
(g46
g47
F1.478216765075532
tRp1344
(dp1345
g50
I01
sg2
S'SR:C28-MG:G02A{Quad:H2}Fld-I'
p1346
sbsg56
VQH2G2C28A
p1347
sg58
VQH2G2C28A
p1348
sg60
g61
sg2
VQH2G2C28A.value
p1349
sg63
(lp1350
S'SR:C28-MG:G02A{Quad:H2}Fld-I'
p1351
asg66
Nsg67
VC28
p1352
sg69
F0.44800000000000001
sg70
F745.25300000000004
sg71
F745.70100000000002
sba(iTunerUtils.knob
Knob
p1353
(dp1354
g24
VB
sg25
g26
sg27
I3227
sg28
(lp1355
VQUAD
p1356
aVC29
p1357
aVG6
p1358
aVB
asg33
VQUAD
p1359
sg35
Nsg36
I0
sg37
S''
sg38
(lp1360
S'SR:C29-MG:G06B{Quad:H2}Fld-SP'
p1361
asg41
F0
sg42
VG6
p1362
sg44
g45
(g46
g47
F1.4776499999999999
tRp1363
(dp1364
g50
I01
sg2
S'SR:C29-MG:G06B{Quad:H2}Fld-SP'
p1365
sbsg52
g45
(g46
g47
F1.4772789471698329
tRp1366
(dp1367
g50
I01
sg2
S'SR:C29-MG:G06B{Quad:H2}Fld-I'
p1368
sbsg56
VQH2G6C29B
p1369
sg58
VQH2G6C29B
p1370
sg60
g61
sg2
VQH2G6C29B.value
p1371
sg63
(lp1372
S'SR:C29-MG:G06B{Quad:H2}Fld-I'
p1373
asg66
Nsg67
VC29
p1374
sg69
F0.44800000000000001
sg70
F785.41800000000001
sg71
F785.86599999999999
sbasg2
S'QH2'
p1375
sg711
F-3.4173
sba(iTunerUtils.knob
KnobGroup
p1376
(dp1377
g20
(lp1378
(iTunerUtils.knob
Knob
p1379
(dp1380
g24
VA
sg25
g26
sg27
I22
sg28
(lp1381
VQUAD
p1382
aVC30
p1383
aVG2
p1384
aVA
asg33
VQUAD
p1385
sg35
Nsg36
I0
sg37
S''
sg38
(lp1386
S'SR:C30-MG:G02A{Quad:H3}Fld-SP'
p1387
asg41
F0
sg42
VG2
p1388
sg44
g45
(g46
g47
F-1.7075499999999999
tRp1389
(dp1390
g50
I01
sg2
S'SR:C30-MG:G02A{Quad:H3}Fld-SP'
p1391
sbsg52
g45
(g46
g47
F-1.7070885954196229
tRp1392
(dp1393
g50
I01
sg2
S'SR:C30-MG:G02A{Quad:H3}Fld-I'
p1394
sbsg56
VQH3G2C30A
p1395
sg58
VQH3G2C30A
p1396
sg60
g61
sg2
VQH3G2C30A.value
p1397
sg63
(lp1398
S'SR:C30-MG:G02A{Quad:H3}Fld-I'
p1399
asg66
Nsg67
VC30
p1400
sg69
F0.27500000000000002
sg70
F7.1124999999999998
sg71
F7.3875000000000002
sba(iTunerUtils.knob
Knob
p1401
(dp1402
g24
VB
sg25
g26
sg27
I195
sg28
(lp1403
VQUAD
p1404
aVC01
p1405
aVG6
p1406
aVB
asg33
VQUAD
p1407
sg35
Nsg36
I0
sg37
S''
sg38
(lp1408
S'SR:C01-MG:G06B{Quad:H3}Fld-SP'
p1409
asg41
F0
sg42
VG6
p1410
sg44
g45
(g46
g47
F-1.7075499999999999
tRp1411
(dp1412
g50
I01
sg2
S'SR:C01-MG:G06B{Quad:H3}Fld-SP'
p1413
sbsg52
g45
(g46
g47
F-1.7074618410708018
tRp1414
(dp1415
g50
I01
sg2
S'SR:C01-MG:G06B{Quad:H3}Fld-I'
p1416
sbsg56
VQH3G6C01B
p1417
sg58
VQH3G6C01B
p1418
sg60
g61
sg2
VQH3G6C01B.value
p1419
sg63
(lp1420
S'SR:C01-MG:G06B{Quad:H3}Fld-I'
p1421
asg66
Nsg67
VC01
p1422
sg69
F0.27500000000000002
sg70
F45.409700000000001
sg71
F45.684699999999999
sba(iTunerUtils.knob
Knob
p1423
(dp1424
g24
VA
sg25
g26
sg27
I238
sg28
(lp1425
VQUAD
p1426
aVC02
p1427
aVG2
p1428
aVA
asg33
VQUAD
p1429
sg35
Nsg36
I0
sg37
S''
sg38
(lp1430
S'SR:C02-MG:G02A{Quad:H3}Fld-SP'
p1431
asg41
F0
sg42
VG2
p1432
sg44
g45
(g46
g47
F-1.7075499999999999
tRp1433
(dp1434
g50
I01
sg2
S'SR:C02-MG:G02A{Quad:H3}Fld-SP'
p1435
sbsg52
g45
(g46
g47
F-1.7076094457209887
tRp1436
(dp1437
g50
I01
sg2
S'SR:C02-MG:G02A{Quad:H3}Fld-I'
p1438
sbsg56
VQH3G2C02A
p1439
sg58
VQH3G2C02A
p1440
sg60
g61
sg2
VQH3G2C02A.value
p1441
sg63
(lp1442
S'SR:C02-MG:G02A{Quad:H3}Fld-I'
p1443
asg66
Nsg67
VC02
p1444
sg69
F0.27500000000000002
sg70
F59.909700000000001
sg71
F60.184699999999999
sba(iTunerUtils.knob
Knob
p1445
(dp1446
g24
VB
sg25
g26
sg27
I411
sg28
(lp1447
VQUAD
p1448
aVC03
p1449
aVG6
p1450
aVB
asg33
VQUAD
p1451
sg35
Nsg36
I0
sg37
S''
sg38
(lp1452
S'SR:C03-MG:G06B{Quad:H3}Fld-SP'
p1453
asg41
F0
sg42
VG6
p1454
sg44
g45
(g46
g47
F-1.7075499999999999
tRp1455
(dp1456
g50
I01
sg2
S'SR:C03-MG:G06B{Quad:H3}Fld-SP'
p1457
sbsg52
g45
(g46
g47
F-1.706779759070344
tRp1458
(dp1459
g50
I01
sg2
S'SR:C03-MG:G06B{Quad:H3}Fld-I'
p1460
sbsg56
VQH3G6C03B
p1461
sg58
VQH3G6C03B
p1462
sg60
g61
sg2
VQH3G6C03B.value
p1463
sg63
(lp1464
S'SR:C03-MG:G06B{Quad:H3}Fld-I'
p1465
asg66
Nsg67
VC03
p1466
sg69
F0.27500000000000002
sg70
F98.20689999999999
sg71
F98.481899999999996
sba(iTunerUtils.knob
Knob
p1467
(dp1468
g24
VA
sg25
g26
sg27
I454
sg28
(lp1469
VQUAD
p1470
aVC04
p1471
aVG2
p1472
aVA
asg33
VQUAD
p1473
sg35
Nsg36
I0
sg37
S''
sg38
(lp1474
S'SR:C04-MG:G02A{Quad:H3}Fld-SP'
p1475
asg41
F0
sg42
VG2
p1476
sg44
g45
(g46
g47
F-1.7075499999999999
tRp1477
(dp1478
g50
I01
sg2
S'SR:C04-MG:G02A{Quad:H3}Fld-SP'
p1479
sbsg52
g45
(g46
g47
F-1.707014285011444
tRp1480
(dp1481
g50
I01
sg2
S'SR:C04-MG:G02A{Quad:H3}Fld-I'
p1482
sbsg56
VQH3G2C04A
p1483
sg58
VQH3G2C04A
p1484
sg60
g61
sg2
VQH3G2C04A.value
p1485
sg63
(lp1486
S'SR:C04-MG:G02A{Quad:H3}Fld-I'
p1487
asg66
Nsg67
VC04
p1488
sg69
F0.27500000000000002
sg70
F112.70699999999999
sg71
F112.982
sba(iTunerUtils.knob
Knob
p1489
(dp1490
g24
VB
sg25
g26
sg27
I627
sg28
(lp1491
VQUAD
p1492
aVC05
p1493
aVG6
p1494
aVB
asg33
VQUAD
p1495
sg35
Nsg36
I0
sg37
S''
sg38
(lp1496
S'SR:C05-MG:G06B{Quad:H3}Fld-SP'
p1497
asg41
F0
sg42
VG6
p1498
sg44
g45
(g46
g47
F-1.7075499999999999
tRp1499
(dp1500
g50
I01
sg2
S'SR:C05-MG:G06B{Quad:H3}Fld-SP'
p1501
sbsg52
g45
(g46
g47
F-1.7079515810540169
tRp1502
(dp1503
g50
I01
sg2
S'SR:C05-MG:G06B{Quad:H3}Fld-I'
p1504
sbsg56
VQH3G6C05B
p1505
sg58
VQH3G6C05B
p1506
sg60
g61
sg2
VQH3G6C05B.value
p1507
sg63
(lp1508
S'SR:C05-MG:G06B{Quad:H3}Fld-I'
p1509
asg66
Nsg67
VC05
p1510
sg69
F0.27500000000000002
sg70
F151.00399999999999
sg71
F151.279
sba(iTunerUtils.knob
Knob
p1511
(dp1512
g24
VA
sg25
g26
sg27
I670
sg28
(lp1513
VQUAD
p1514
aVC06
p1515
aVG2
p1516
aVA
asg33
VQUAD
p1517
sg35
Nsg36
I0
sg37
S''
sg38
(lp1518
S'SR:C06-MG:G02A{Quad:H3}Fld-SP'
p1519
asg41
F0
sg42
VG2
p1520
sg44
g45
(g46
g47
F-1.7075499999999999
tRp1521
(dp1522
g50
I01
sg2
S'SR:C06-MG:G02A{Quad:H3}Fld-SP'
p1523
sbsg52
g45
(g46
g47
F-1.7070473755508506
tRp1524
(dp1525
g50
I01
sg2
S'SR:C06-MG:G02A{Quad:H3}Fld-I'
p1526
sbsg56
VQH3G2C06A
p1527
sg58
VQH3G2C06A
p1528
sg60
g61
sg2
VQH3G2C06A.value
p1529
sg63
(lp1530
S'SR:C06-MG:G02A{Quad:H3}Fld-I'
p1531
asg66
Nsg67
VC06
p1532
sg69
F0.27500000000000002
sg70
F165.50399999999999
sg71
F165.779
sba(iTunerUtils.knob
Knob
p1533
(dp1534
g24
VB
sg25
g26
sg27
I843
sg28
(lp1535
VQUAD
p1536
aVC07
p1537
aVG6
p1538
aVB
asg33
VQUAD
p1539
sg35
Nsg36
I0
sg37
S''
sg38
(lp1540
S'SR:C07-MG:G06B{Quad:H3}Fld-SP'
p1541
asg41
F0
sg42
VG6
p1542
sg44
g45
(g46
g47
F-1.7075499999999999
tRp1543
(dp1544
g50
I01
sg2
S'SR:C07-MG:G06B{Quad:H3}Fld-SP'
p1545
sbsg52
g45
(g46
g47
F-1.7074520962977797
tRp1546
(dp1547
g50
I01
sg2
S'SR:C07-MG:G06B{Quad:H3}Fld-I'
p1548
sbsg56
VQH3G6C07B
p1549
sg58
VQH3G6C07B
p1550
sg60
g61
sg2
VQH3G6C07B.value
p1551
sg63
(lp1552
S'SR:C07-MG:G06B{Quad:H3}Fld-I'
p1553
asg66
Nsg67
VC07
p1554
sg69
F0.27500000000000002
sg70
F203.80099999999999
sg71
F204.07599999999999
sba(iTunerUtils.knob
Knob
p1555
(dp1556
g24
VA
sg25
g26
sg27
I886
sg28
(lp1557
VQUAD
p1558
aVC08
p1559
aVG2
p1560
aVA
asg33
VQUAD
p1561
sg35
Nsg36
I0
sg37
S''
sg38
(lp1562
S'SR:C08-MG:G02A{Quad:H3}Fld-SP'
p1563
asg41
F0
sg42
VG2
p1564
sg44
g45
(g46
g47
F-1.7075499999999999
tRp1565
(dp1566
g50
I01
sg2
S'SR:C08-MG:G02A{Quad:H3}Fld-SP'
p1567
sbsg52
g45
(g46
g47
F-1.7080388931780728
tRp1568
(dp1569
g50
I01
sg2
S'SR:C08-MG:G02A{Quad:H3}Fld-I'
p1570
sbsg56
VQH3G2C08A
p1571
sg58
VQH3G2C08A
p1572
sg60
g61
sg2
VQH3G2C08A.value
p1573
sg63
(lp1574
S'SR:C08-MG:G02A{Quad:H3}Fld-I'
p1575
asg66
Nsg67
VC08
p1576
sg69
F0.27500000000000002
sg70
F218.30099999999999
sg71
F218.57599999999999
sba(iTunerUtils.knob
Knob
p1577
(dp1578
g24
VB
sg25
g26
sg27
I1059
sg28
(lp1579
VQUAD
p1580
aVC09
p1581
aVG6
p1582
aVB
asg33
VQUAD
p1583
sg35
Nsg36
I0
sg37
S''
sg38
(lp1584
S'SR:C09-MG:G06B{Quad:H3}Fld-SP'
p1585
asg41
F0
sg42
VG6
p1586
sg44
g45
(g46
g47
F-1.7075499999999999
tRp1587
(dp1588
g50
I01
sg2
S'SR:C09-MG:G06B{Quad:H3}Fld-SP'
p1589
sbsg52
g45
(g46
g47
F-1.7077059293961239
tRp1590
(dp1591
g50
I01
sg2
S'SR:C09-MG:G06B{Quad:H3}Fld-I'
p1592
sbsg56
VQH3G6C09B
p1593
sg58
VQH3G6C09B
p1594
sg60
g61
sg2
VQH3G6C09B.value
p1595
sg63
(lp1596
S'SR:C09-MG:G06B{Quad:H3}Fld-I'
p1597
asg66
Nsg67
VC09
p1598
sg69
F0.27500000000000002
sg70
F256.59800000000001
sg71
F256.87299999999999
sba(iTunerUtils.knob
Knob
p1599
(dp1600
g24
VA
sg25
g26
sg27
I1102
sg28
(lp1601
VQUAD
p1602
aVC10
p1603
aVG2
p1604
aVA
asg33
VQUAD
p1605
sg35
Nsg36
I0
sg37
S''
sg38
(lp1606
S'SR:C10-MG:G02A{Quad:H3}Fld-SP'
p1607
asg41
F0
sg42
VG2
p1608
sg44
g45
(g46
g47
F-1.7075499999999999
tRp1609
(dp1610
g50
I01
sg2
S'SR:C10-MG:G02A{Quad:H3}Fld-SP'
p1611
sbsg52
g45
(g46
g47
F-1.7078376922762644
tRp1612
(dp1613
g50
I01
sg2
S'SR:C10-MG:G02A{Quad:H3}Fld-I'
p1614
sbsg56
VQH3G2C10A
p1615
sg58
VQH3G2C10A
p1616
sg60
g61
sg2
VQH3G2C10A.value
p1617
sg63
(lp1618
S'SR:C10-MG:G02A{Quad:H3}Fld-I'
p1619
asg66
Nsg67
VC10
p1620
sg69
F0.27500000000000002
sg70
F271.09800000000001
sg71
F271.37299999999999
sba(iTunerUtils.knob
Knob
p1621
(dp1622
g24
VB
sg25
g26
sg27
I1275
sg28
(lp1623
VQUAD
p1624
aVC11
p1625
aVG6
p1626
aVB
asg33
VQUAD
p1627
sg35
Nsg36
I0
sg37
S''
sg38
(lp1628
S'SR:C11-MG:G06B{Quad:H3}Fld-SP'
p1629
asg41
F0
sg42
VG6
p1630
sg44
g45
(g46
g47
F-1.7075499999999999
tRp1631
(dp1632
g50
I01
sg2
S'SR:C11-MG:G06B{Quad:H3}Fld-SP'
p1633
sbsg52
g45
(g46
g47
F-1.7083362129774167
tRp1634
(dp1635
g50
I01
sg2
S'SR:C11-MG:G06B{Quad:H3}Fld-I'
p1636
sbsg56
VQH3G6C11B
p1637
sg58
VQH3G6C11B
p1638
sg60
g61
sg2
VQH3G6C11B.value
p1639
sg63
(lp1640
S'SR:C11-MG:G06B{Quad:H3}Fld-I'
p1641
asg66
Nsg67
VC11
p1642
sg69
F0.27500000000000002
sg70
F309.39600000000002
sg71
F309.67099999999999
sba(iTunerUtils.knob
Knob
p1643
(dp1644
g24
VA
sg25
g26
sg27
I1318
sg28
(lp1645
VQUAD
p1646
aVC12
p1647
aVG2
p1648
aVA
asg33
VQUAD
p1649
sg35
Nsg36
I0
sg37
S''
sg38
(lp1650
S'SR:C12-MG:G02A{Quad:H3}Fld-SP'
p1651
asg41
F0
sg42
VG2
p1652
sg44
g45
(g46
g47
F-1.7075499999999999
tRp1653
(dp1654
g50
I01
sg2
S'SR:C12-MG:G02A{Quad:H3}Fld-SP'
p1655
sbsg52
g45
(g46
g47
F-1.7075743749603263
tRp1656
(dp1657
g50
I01
sg2
S'SR:C12-MG:G02A{Quad:H3}Fld-I'
p1658
sbsg56
VQH3G2C12A
p1659
sg58
VQH3G2C12A
p1660
sg60
g61
sg2
VQH3G2C12A.value
p1661
sg63
(lp1662
S'SR:C12-MG:G02A{Quad:H3}Fld-I'
p1663
asg66
Nsg67
VC12
p1664
sg69
F0.27500000000000002
sg70
F323.89600000000002
sg71
F324.17099999999999
sba(iTunerUtils.knob
Knob
p1665
(dp1666
g24
VB
sg25
g26
sg27
I1491
sg28
(lp1667
VQUAD
p1668
aVC13
p1669
aVG6
p1670
aVB
asg33
VQUAD
p1671
sg35
Nsg36
I0
sg37
S''
sg38
(lp1672
S'SR:C13-MG:G06B{Quad:H3}Fld-SP'
p1673
asg41
F0
sg42
VG6
p1674
sg44
g45
(g46
g47
F-1.7075499999999999
tRp1675
(dp1676
g50
I01
sg2
S'SR:C13-MG:G06B{Quad:H3}Fld-SP'
p1677
sbsg52
g45
(g46
g47
F-1.7076587167524986
tRp1678
(dp1679
g50
I01
sg2
S'SR:C13-MG:G06B{Quad:H3}Fld-I'
p1680
sbsg56
VQH3G6C13B
p1681
sg58
VQH3G6C13B
p1682
sg60
g61
sg2
VQH3G6C13B.value
p1683
sg63
(lp1684
S'SR:C13-MG:G06B{Quad:H3}Fld-I'
p1685
asg66
Nsg67
VC13
p1686
sg69
F0.27500000000000002
sg70
F362.19300000000004
sg71
F362.46800000000002
sba(iTunerUtils.knob
Knob
p1687
(dp1688
g24
VA
sg25
g26
sg27
I1534
sg28
(lp1689
VQUAD
p1690
aVC14
p1691
aVG2
p1692
aVA
asg33
VQUAD
p1693
sg35
Nsg36
I0
sg37
S''
sg38
(lp1694
S'SR:C14-MG:G02A{Quad:H3}Fld-SP'
p1695
asg41
F0
sg42
VG2
p1696
sg44
g45
(g46
g47
F-1.7075499999999999
tRp1697
(dp1698
g50
I01
sg2
S'SR:C14-MG:G02A{Quad:H3}Fld-SP'
p1699
sbsg52
g45
(g46
g47
F-1.7071789039311054
tRp1700
(dp1701
g50
I01
sg2
S'SR:C14-MG:G02A{Quad:H3}Fld-I'
p1702
sbsg56
VQH3G2C14A
p1703
sg58
VQH3G2C14A
p1704
sg60
g61
sg2
VQH3G2C14A.value
p1705
sg63
(lp1706
S'SR:C14-MG:G02A{Quad:H3}Fld-I'
p1707
asg66
Nsg67
VC14
p1708
sg69
F0.27500000000000002
sg70
F376.69300000000004
sg71
F376.96800000000002
sba(iTunerUtils.knob
Knob
p1709
(dp1710
g24
VB
sg25
g26
sg27
I1707
sg28
(lp1711
VQUAD
p1712
aVC15
p1713
aVG6
p1714
aVB
asg33
VQUAD
p1715
sg35
Nsg36
I0
sg37
S''
sg38
(lp1716
S'SR:C15-MG:G06B{Quad:H3}Fld-SP'
p1717
asg41
F0
sg42
VG6
p1718
sg44
g45
(g46
g47
F-1.7075499999999999
tRp1719
(dp1720
g50
I01
sg2
S'SR:C15-MG:G06B{Quad:H3}Fld-SP'
p1721
sbsg52
g45
(g46
g47
F-1.7075911286743723
tRp1722
(dp1723
g50
I01
sg2
S'SR:C15-MG:G06B{Quad:H3}Fld-I'
p1724
sbsg56
VQH3G6C15B
p1725
sg58
VQH3G6C15B
p1726
sg60
g61
sg2
VQH3G6C15B.value
p1727
sg63
(lp1728
S'SR:C15-MG:G06B{Quad:H3}Fld-I'
p1729
asg66
Nsg67
VC15
p1730
sg69
F0.27500000000000002
sg70
F414.99000000000001
sg71
F415.26499999999999
sba(iTunerUtils.knob
Knob
p1731
(dp1732
g24
VA
sg25
g26
sg27
I1750
sg28
(lp1733
VQUAD
p1734
aVC16
p1735
aVG2
p1736
aVA
asg33
VQUAD
p1737
sg35
Nsg36
I0
sg37
S''
sg38
(lp1738
S'SR:C16-MG:G02A{Quad:H3}Fld-SP'
p1739
asg41
F0
sg42
VG2
p1740
sg44
g45
(g46
g47
F-1.7075499999999999
tRp1741
(dp1742
g50
I01
sg2
S'SR:C16-MG:G02A{Quad:H3}Fld-SP'
p1743
sbsg52
g45
(g46
g47
F-1.7077285195517662
tRp1744
(dp1745
g50
I01
sg2
S'SR:C16-MG:G02A{Quad:H3}Fld-I'
p1746
sbsg56
VQH3G2C16A
p1747
sg58
VQH3G2C16A
p1748
sg60
g61
sg2
VQH3G2C16A.value
p1749
sg63
(lp1750
S'SR:C16-MG:G02A{Quad:H3}Fld-I'
p1751
asg66
Nsg67
VC16
p1752
sg69
F0.27500000000000002
sg70
F429.49000000000001
sg71
F429.76499999999999
sba(iTunerUtils.knob
Knob
p1753
(dp1754
g24
VB
sg25
g26
sg27
I1923
sg28
(lp1755
VQUAD
p1756
aVC17
p1757
aVG6
p1758
aVB
asg33
VQUAD
p1759
sg35
Nsg36
I0
sg37
S''
sg38
(lp1760
S'SR:C17-MG:G06B{Quad:H3}Fld-SP'
p1761
asg41
F0
sg42
VG6
p1762
sg44
g45
(g46
g47
F-1.7075499999999999
tRp1763
(dp1764
g50
I01
sg2
S'SR:C17-MG:G06B{Quad:H3}Fld-SP'
p1765
sbsg52
g45
(g46
g47
F-1.7083168797646293
tRp1766
(dp1767
g50
I01
sg2
S'SR:C17-MG:G06B{Quad:H3}Fld-I'
p1768
sbsg56
VQH3G6C17B
p1769
sg58
VQH3G6C17B
p1770
sg60
g61
sg2
VQH3G6C17B.value
p1771
sg63
(lp1772
S'SR:C17-MG:G06B{Quad:H3}Fld-I'
p1773
asg66
Nsg67
VC17
p1774
sg69
F0.27500000000000002
sg70
F467.78700000000003
sg71
F468.06200000000001
sba(iTunerUtils.knob
Knob
p1775
(dp1776
g24
VA
sg25
g26
sg27
I1966
sg28
(lp1777
VQUAD
p1778
aVC18
p1779
aVG2
p1780
aVA
asg33
VQUAD
p1781
sg35
Nsg36
I0
sg37
S''
sg38
(lp1782
S'SR:C18-MG:G02A{Quad:H3}Fld-SP'
p1783
asg41
F0
sg42
VG2
p1784
sg44
g45
(g46
g47
F-1.7075499999999999
tRp1785
(dp1786
g50
I01
sg2
S'SR:C18-MG:G02A{Quad:H3}Fld-SP'
p1787
sbsg52
g45
(g46
g47
F-1.7069653527019912
tRp1788
(dp1789
g50
I01
sg2
S'SR:C18-MG:G02A{Quad:H3}Fld-I'
p1790
sbsg56
VQH3G2C18A
p1791
sg58
VQH3G2C18A
p1792
sg60
g61
sg2
VQH3G2C18A.value
p1793
sg63
(lp1794
S'SR:C18-MG:G02A{Quad:H3}Fld-I'
p1795
asg66
Nsg67
VC18
p1796
sg69
F0.27500000000000002
sg70
F482.28700000000003
sg71
F482.56200000000001
sba(iTunerUtils.knob
Knob
p1797
(dp1798
g24
VB
sg25
g26
sg27
I2139
sg28
(lp1799
VQUAD
p1800
aVC19
p1801
aVG6
p1802
aVB
asg33
VQUAD
p1803
sg35
Nsg36
I0
sg37
S''
sg38
(lp1804
S'SR:C19-MG:G06B{Quad:H3}Fld-SP'
p1805
asg41
F0
sg42
VG6
p1806
sg44
g45
(g46
g47
F-1.7075499999999999
tRp1807
(dp1808
g50
I01
sg2
S'SR:C19-MG:G06B{Quad:H3}Fld-SP'
p1809
sbsg52
g45
(g46
g47
F-1.708071697106508
tRp1810
(dp1811
g50
I01
sg2
S'SR:C19-MG:G06B{Quad:H3}Fld-I'
p1812
sbsg56
VQH3G6C19B
p1813
sg58
VQH3G6C19B
p1814
sg60
g61
sg2
VQH3G6C19B.value
p1815
sg63
(lp1816
S'SR:C19-MG:G06B{Quad:H3}Fld-I'
p1817
asg66
Nsg67
VC19
p1818
sg69
F0.27500000000000002
sg70
F520.58400000000006
sg71
F520.85900000000004
sba(iTunerUtils.knob
Knob
p1819
(dp1820
g24
VA
sg25
g26
sg27
I2182
sg28
(lp1821
VQUAD
p1822
aVC20
p1823
aVG2
p1824
aVA
asg33
VQUAD
p1825
sg35
Nsg36
I0
sg37
S''
sg38
(lp1826
S'SR:C20-MG:G02A{Quad:H3}Fld-SP'
p1827
asg41
F0
sg42
VG2
p1828
sg44
g45
(g46
g47
F-1.7075499999999999
tRp1829
(dp1830
g50
I01
sg2
S'SR:C20-MG:G02A{Quad:H3}Fld-SP'
p1831
sbsg52
g45
(g46
g47
F-1.7067670700209809
tRp1832
(dp1833
g50
I01
sg2
S'SR:C20-MG:G02A{Quad:H3}Fld-I'
p1834
sbsg56
VQH3G2C20A
p1835
sg58
VQH3G2C20A
p1836
sg60
g61
sg2
VQH3G2C20A.value
p1837
sg63
(lp1838
S'SR:C20-MG:G02A{Quad:H3}Fld-I'
p1839
asg66
Nsg67
VC20
p1840
sg69
F0.27500000000000002
sg70
F535.08500000000004
sg71
F535.36000000000001
sba(iTunerUtils.knob
Knob
p1841
(dp1842
g24
VB
sg25
g26
sg27
I2355
sg28
(lp1843
VQUAD
p1844
aVC21
p1845
aVG6
p1846
aVB
asg33
VQUAD
p1847
sg35
Nsg36
I0
sg37
S''
sg38
(lp1848
S'SR:C21-MG:G06B{Quad:H3}Fld-SP'
p1849
asg41
F0
sg42
VG6
p1850
sg44
g45
(g46
g47
F-1.7075499999999999
tRp1851
(dp1852
g50
I01
sg2
S'SR:C21-MG:G06B{Quad:H3}Fld-SP'
p1853
sbsg52
g45
(g46
g47
F-1.7080528850045775
tRp1854
(dp1855
g50
I01
sg2
S'SR:C21-MG:G06B{Quad:H3}Fld-I'
p1856
sbsg56
VQH3G6C21B
p1857
sg58
VQH3G6C21B
p1858
sg60
g61
sg2
VQH3G6C21B.value
p1859
sg63
(lp1860
S'SR:C21-MG:G06B{Quad:H3}Fld-I'
p1861
asg66
Nsg67
VC21
p1862
sg69
F0.27500000000000002
sg70
F573.38200000000006
sg71
F573.65700000000004
sba(iTunerUtils.knob
Knob
p1863
(dp1864
g24
VA
sg25
g26
sg27
I2398
sg28
(lp1865
VQUAD
p1866
aVC22
p1867
aVG2
p1868
aVA
asg33
VQUAD
p1869
sg35
Nsg36
I0
sg37
S''
sg38
(lp1870
S'SR:C22-MG:G02A{Quad:H3}Fld-SP'
p1871
asg41
F0
sg42
VG2
p1872
sg44
g45
(g46
g47
F-1.7075499999999999
tRp1873
(dp1874
g50
I01
sg2
S'SR:C22-MG:G02A{Quad:H3}Fld-SP'
p1875
sbsg52
g45
(g46
g47
F-1.7069569107061111
tRp1876
(dp1877
g50
I01
sg2
S'SR:C22-MG:G02A{Quad:H3}Fld-I'
p1878
sbsg56
VQH3G2C22A
p1879
sg58
VQH3G2C22A
p1880
sg60
g61
sg2
VQH3G2C22A.value
p1881
sg63
(lp1882
S'SR:C22-MG:G02A{Quad:H3}Fld-I'
p1883
asg66
Nsg67
VC22
p1884
sg69
F0.27500000000000002
sg70
F587.88200000000006
sg71
F588.15700000000004
sba(iTunerUtils.knob
Knob
p1885
(dp1886
g24
VB
sg25
g26
sg27
I2571
sg28
(lp1887
VQUAD
p1888
aVC23
p1889
aVG6
p1890
aVB
asg33
VQUAD
p1891
sg35
Nsg36
I0
sg37
S''
sg38
(lp1892
S'SR:C23-MG:G06B{Quad:H3}Fld-SP'
p1893
asg41
F0
sg42
VG6
p1894
sg44
g45
(g46
g47
F-1.7075499999999999
tRp1895
(dp1896
g50
I01
sg2
S'SR:C23-MG:G06B{Quad:H3}Fld-SP'
p1897
sbsg52
g45
(g46
g47
F-1.7070831498111694
tRp1898
(dp1899
g50
I01
sg2
S'SR:C23-MG:G06B{Quad:H3}Fld-I'
p1900
sbsg56
VQH3G6C23B
p1901
sg58
VQH3G6C23B
p1902
sg60
g61
sg2
VQH3G6C23B.value
p1903
sg63
(lp1904
S'SR:C23-MG:G06B{Quad:H3}Fld-I'
p1905
asg66
Nsg67
VC23
p1906
sg69
F0.27500000000000002
sg70
F626.17899999999997
sg71
F626.45399999999995
sba(iTunerUtils.knob
Knob
p1907
(dp1908
g24
VA
sg25
g26
sg27
I2614
sg28
(lp1909
VQUAD
p1910
aVC24
p1911
aVG2
p1912
aVA
asg33
VQUAD
p1913
sg35
Nsg36
I0
sg37
S''
sg38
(lp1914
S'SR:C24-MG:G02A{Quad:H3}Fld-SP'
p1915
asg41
F0
sg42
VG2
p1916
sg44
g45
(g46
g47
F-1.7075499999999999
tRp1917
(dp1918
g50
I01
sg2
S'SR:C24-MG:G02A{Quad:H3}Fld-SP'
p1919
sbsg52
g45
(g46
g47
F-1.7076516035893035
tRp1920
(dp1921
g50
I01
sg2
S'SR:C24-MG:G02A{Quad:H3}Fld-I'
p1922
sbsg56
VQH3G2C24A
p1923
sg58
VQH3G2C24A
p1924
sg60
g61
sg2
VQH3G2C24A.value
p1925
sg63
(lp1926
S'SR:C24-MG:G02A{Quad:H3}Fld-I'
p1927
asg66
Nsg67
VC24
p1928
sg69
F0.27500000000000002
sg70
F640.67899999999997
sg71
F640.95399999999995
sba(iTunerUtils.knob
Knob
p1929
(dp1930
g24
VB
sg25
g26
sg27
I2787
sg28
(lp1931
VQUAD
p1932
aVC25
p1933
aVG6
p1934
aVB
asg33
VQUAD
p1935
sg35
Nsg36
I0
sg37
S''
sg38
(lp1936
S'SR:C25-MG:G06B{Quad:H3}Fld-SP'
p1937
asg41
F0
sg42
VG6
p1938
sg44
g45
(g46
g47
F-1.7075499999999999
tRp1939
(dp1940
g50
I01
sg2
S'SR:C25-MG:G06B{Quad:H3}Fld-SP'
p1941
sbsg52
g45
(g46
g47
F-1.7082274571416038
tRp1942
(dp1943
g50
I01
sg2
S'SR:C25-MG:G06B{Quad:H3}Fld-I'
p1944
sbsg56
VQH3G6C25B
p1945
sg58
VQH3G6C25B
p1946
sg60
g61
sg2
VQH3G6C25B.value
p1947
sg63
(lp1948
S'SR:C25-MG:G06B{Quad:H3}Fld-I'
p1949
asg66
Nsg67
VC25
p1950
sg69
F0.27500000000000002
sg70
F678.976
sg71
F679.25099999999998
sba(iTunerUtils.knob
Knob
p1951
(dp1952
g24
VA
sg25
g26
sg27
I2830
sg28
(lp1953
VQUAD
p1954
aVC26
p1955
aVG2
p1956
aVA
asg33
VQUAD
p1957
sg35
Nsg36
I0
sg37
S''
sg38
(lp1958
S'SR:C26-MG:G02A{Quad:H3}Fld-SP'
p1959
asg41
F0
sg42
VG2
p1960
sg44
g45
(g46
g47
F-1.7075499999999999
tRp1961
(dp1962
g50
I01
sg2
S'SR:C26-MG:G02A{Quad:H3}Fld-SP'
p1963
sbsg52
g45
(g46
g47
F-1.7081941321023115
tRp1964
(dp1965
g50
I01
sg2
S'SR:C26-MG:G02A{Quad:H3}Fld-I'
p1966
sbsg56
VQH3G2C26A
p1967
sg58
VQH3G2C26A
p1968
sg60
g61
sg2
VQH3G2C26A.value
p1969
sg63
(lp1970
S'SR:C26-MG:G02A{Quad:H3}Fld-I'
p1971
asg66
Nsg67
VC26
p1972
sg69
F0.27500000000000002
sg70
F693.476
sg71
F693.75099999999998
sba(iTunerUtils.knob
Knob
p1973
(dp1974
g24
VB
sg25
g26
sg27
I3003
sg28
(lp1975
VQUAD
p1976
aVC27
p1977
aVG6
p1978
aVB
asg33
VQUAD
p1979
sg35
Nsg36
I0
sg37
S''
sg38
(lp1980
S'SR:C27-MG:G06B{Quad:H3}Fld-SP'
p1981
asg41
F0
sg42
VG6
p1982
sg44
g45
(g46
g47
F-1.7075499999999999
tRp1983
(dp1984
g50
I01
sg2
S'SR:C27-MG:G06B{Quad:H3}Fld-SP'
p1985
sbsg52
g45
(g46
g47
F-1.7083341285339895
tRp1986
(dp1987
g50
I01
sg2
S'SR:C27-MG:G06B{Quad:H3}Fld-I'
p1988
sbsg56
VQH3G6C27B
p1989
sg58
VQH3G6C27B
p1990
sg60
g61
sg2
VQH3G6C27B.value
p1991
sg63
(lp1992
S'SR:C27-MG:G06B{Quad:H3}Fld-I'
p1993
asg66
Nsg67
VC27
p1994
sg69
F0.27500000000000002
sg70
F731.77300000000002
sg71
F732.048
sba(iTunerUtils.knob
Knob
p1995
(dp1996
g24
VA
sg25
g26
sg27
I3046
sg28
(lp1997
VQUAD
p1998
aVC28
p1999
aVG2
p2000
aVA
asg33
VQUAD
p2001
sg35
Nsg36
I0
sg37
S''
sg38
(lp2002
S'SR:C28-MG:G02A{Quad:H3}Fld-SP'
p2003
asg41
F0
sg42
VG2
p2004
sg44
g45
(g46
g47
F-1.7075499999999999
tRp2005
(dp2006
g50
I01
sg2
S'SR:C28-MG:G02A{Quad:H3}Fld-SP'
p2007
sbsg52
g45
(g46
g47
F-1.7077940752975509
tRp2008
(dp2009
g50
I01
sg2
S'SR:C28-MG:G02A{Quad:H3}Fld-I'
p2010
sbsg56
VQH3G2C28A
p2011
sg58
VQH3G2C28A
p2012
sg60
g61
sg2
VQH3G2C28A.value
p2013
sg63
(lp2014
S'SR:C28-MG:G02A{Quad:H3}Fld-I'
p2015
asg66
Nsg67
VC28
p2016
sg69
F0.27500000000000002
sg70
F746.27300000000002
sg71
F746.548
sba(iTunerUtils.knob
Knob
p2017
(dp2018
g24
VB
sg25
g26
sg27
I3223
sg28
(lp2019
VQUAD
p2020
aVC29
p2021
aVG6
p2022
aVB
asg33
VQUAD
p2023
sg35
Nsg36
I0
sg37
S''
sg38
(lp2024
S'SR:C29-MG:G06B{Quad:H3}Fld-SP'
p2025
asg41
F0
sg42
VG6
p2026
sg44
g45
(g46
g47
F-1.7075499999999999
tRp2027
(dp2028
g50
I01
sg2
S'SR:C29-MG:G06B{Quad:H3}Fld-SP'
p2029
sbsg52
g45
(g46
g47
F-1.7080668507755397
tRp2030
(dp2031
g50
I01
sg2
S'SR:C29-MG:G06B{Quad:H3}Fld-I'
p2032
sbsg56
VQH3G6C29B
p2033
sg58
VQH3G6C29B
p2034
sg60
g61
sg2
VQH3G6C29B.value
p2035
sg63
(lp2036
S'SR:C29-MG:G06B{Quad:H3}Fld-I'
p2037
asg66
Nsg67
VC29
p2038
sg69
F0.27500000000000002
sg70
F784.57100000000003
sg71
F784.846
sbasg2
S'QH3'
p2039
sg711
F2
sbasS'refStepSize'
p2040
F0.0060000000000000001
sS'weight_list'
p2041
(lp2042
F1
aF-3.4173
aF2
asS'ref_index'
p2043
I2
sS'normalized_weight_list'
p2044
(lp2045
F0.5
aF-1.70865
aF1
asS'step_size_list'
p2046
(lp2047
F0.0030000000000000001
aF-0.0102519
aF0.0060000000000000001
asbsS'preferences'
p2048
(dp2049
g10
F1321378502.896399
sg8
g9
sS'TunerGUI'
p2050
(dp2051
S'visible_column_name_list'
p2052
(lp2053
S'Group Name'
p2054
aS'Knob Name'
p2055
aS'Reading'
p2056
aS'Setpoint'
p2057
aS'Weight'
p2058
aS'Step Size'
p2059
aS'Start Read'
p2060
aS'Start Setp'
p2061
asss.