(dp1
S'name'
p2
S'QH'
p3
sS'config_description'
p4
S''
sS'version'
p5
S'0.1.0'
p6
sS'time_stamp'
p7
F1333033895.067333
sS'data'
p8
(iaphla.gui.TunerUtils.knob
KnobGroupList
p9
(dp10
S'refKnobGroupName'
p11
S'QH1'
p12
sS'knobGroups'
p13
(lp14
(iaphla.gui.TunerUtils.knob
KnobGroup
p15
(dp16
S'knobs'
p17
(lp18
(iaphla.gui.TunerUtils.knob
Knob
p19
(dp20
S'symmetry'
p21
VA
sS'sequence'
p22
(I0
I0
tp23
sS'index'
p24
I12
sS'group'
p25
(lp26
VQUAD
p27
aVC30
p28
aVG2
p29
aVA
asS'family'
p30
VQUAD
p31
sS'pvrb_val_time_stamp'
p32
NsS'virtual'
p33
I0
sS'pv_unit'
p34
S''
sS'pvsp'
p35
(lp36
S'SR:C30-MG:G02A{Quad:H1}Fld-SP'
p37
asS'phylen'
p38
F0
sS'girder'
p39
VG2
p40
sS'pvsp_val'
p41
ccopy_reg
_reconstructor
p42
(ccothread.dbr
ca_float
p43
c__builtin__
float
p44
F-0.63300400000000001
tRp45
(dp46
S'ok'
p47
I01
sg2
S'SR:C30-MG:G02A{Quad:H1}Fld-SP'
p48
sbsS'pvrb_val'
p49
g42
(g43
g44
F-0.63271026431461053
tRp50
(dp51
g47
I01
sg2
S'SR:C30-MG:G02A{Quad:H1}Fld-I'
p52
sbsS'devname'
p53
VQH1G2C30A
p54
sS'elem_name'
p55
VQH1G2C30A
p56
sS'field_name'
p57
S'value'
p58
sg2
VQH1G2C30A.value
p59
sS'pvrb'
p60
(lp61
S'SR:C30-MG:G02A{Quad:H1}Fld-I'
p62
asS'pvsp_val_time_stamp'
p63
NsS'cell'
p64
VC30
p65
sS'length'
p66
F0.27500000000000002
sS'sb'
p67
F5.0124999999999993
sS'se'
p68
F5.2874999999999996
sba(iaphla.gui.TunerUtils.knob
Knob
p69
(dp70
g21
VB
sg22
g23
sg24
I205
sg25
(lp71
VQUAD
p72
aVC01
p73
aVG6
p74
aVB
asg30
VQUAD
p75
sg32
Nsg33
I0
sg34
S''
sg35
(lp76
S'SR:C01-MG:G06B{Quad:H1}Fld-SP'
p77
asg38
F0
sg39
VG6
p78
sg41
g42
(g43
g44
F-0.63300400000000001
tRp79
(dp80
g47
I01
sg2
S'SR:C01-MG:G06B{Quad:H1}Fld-SP'
p81
sbsg49
g42
(g43
g44
F-0.63303506824393085
tRp82
(dp83
g47
I01
sg2
S'SR:C01-MG:G06B{Quad:H1}Fld-I'
p84
sbsg53
VQH1G6C01B
p85
sg55
VQH1G6C01B
p86
sg57
g58
sg2
VQH1G6C01B.value
p87
sg60
(lp88
S'SR:C01-MG:G06B{Quad:H1}Fld-I'
p89
asg63
Nsg64
VC01
p90
sg66
F0.27500000000000002
sg67
F47.509700000000002
sg68
F47.784700000000001
sba(iaphla.gui.TunerUtils.knob
Knob
p91
(dp92
g21
VA
sg22
g23
sg24
I228
sg25
(lp93
VQUAD
p94
aVC02
p95
aVG2
p96
aVA
asg30
VQUAD
p97
sg32
Nsg33
I0
sg34
S''
sg35
(lp98
S'SR:C02-MG:G02A{Quad:H1}Fld-SP'
p99
asg38
F0
sg39
VG2
p100
sg41
g42
(g43
g44
F-0.63300400000000001
tRp101
(dp102
g47
I01
sg2
S'SR:C02-MG:G02A{Quad:H1}Fld-SP'
p103
sbsg49
g42
(g43
g44
F-0.63270626547954534
tRp104
(dp105
g47
I01
sg2
S'SR:C02-MG:G02A{Quad:H1}Fld-I'
p106
sbsg53
VQH1G2C02A
p107
sg55
VQH1G2C02A
p108
sg57
g58
sg2
VQH1G2C02A.value
p109
sg60
(lp110
S'SR:C02-MG:G02A{Quad:H1}Fld-I'
p111
asg63
Nsg64
VC02
p112
sg66
F0.27500000000000002
sg67
F57.809699999999999
sg68
F58.084699999999998
sba(iaphla.gui.TunerUtils.knob
Knob
p113
(dp114
g21
VB
sg22
g23
sg24
I421
sg25
(lp115
VQUAD
p116
aVC03
p117
aVG6
p118
aVB
asg30
VQUAD
p119
sg32
Nsg33
I0
sg34
S''
sg35
(lp120
S'SR:C03-MG:G06B{Quad:H1}Fld-SP'
p121
asg38
F0
sg39
VG6
p122
sg41
g42
(g43
g44
F-0.63300400000000001
tRp123
(dp124
g47
I01
sg2
S'SR:C03-MG:G06B{Quad:H1}Fld-SP'
p125
sbsg49
g42
(g43
g44
F-0.63283889350920886
tRp126
(dp127
g47
I01
sg2
S'SR:C03-MG:G06B{Quad:H1}Fld-I'
p128
sbsg53
VQH1G6C03B
p129
sg55
VQH1G6C03B
p130
sg57
g58
sg2
VQH1G6C03B.value
p131
sg60
(lp132
S'SR:C03-MG:G06B{Quad:H1}Fld-I'
p133
asg63
Nsg64
VC03
p134
sg66
F0.27500000000000002
sg67
F100.30699999999999
sg68
F100.58199999999999
sba(iaphla.gui.TunerUtils.knob
Knob
p135
(dp136
g21
VA
sg22
g23
sg24
I444
sg25
(lp137
VQUAD
p138
aVC04
p139
aVG2
p140
aVA
asg30
VQUAD
p141
sg32
Nsg33
I0
sg34
S''
sg35
(lp142
S'SR:C04-MG:G02A{Quad:H1}Fld-SP'
p143
asg38
F0
sg39
VG2
p144
sg41
g42
(g43
g44
F-0.63300400000000001
tRp145
(dp146
g47
I01
sg2
S'SR:C04-MG:G02A{Quad:H1}Fld-SP'
p147
sbsg49
g42
(g43
g44
F-0.6333048350664835
tRp148
(dp149
g47
I01
sg2
S'SR:C04-MG:G02A{Quad:H1}Fld-I'
p150
sbsg53
VQH1G2C04A
p151
sg55
VQH1G2C04A
p152
sg57
g58
sg2
VQH1G2C04A.value
p153
sg60
(lp154
S'SR:C04-MG:G02A{Quad:H1}Fld-I'
p155
asg63
Nsg64
VC04
p156
sg66
F0.27500000000000002
sg67
F110.607
sg68
F110.88200000000001
sba(iaphla.gui.TunerUtils.knob
Knob
p157
(dp158
g21
VB
sg22
g23
sg24
I637
sg25
(lp159
VQUAD
p160
aVC05
p161
aVG6
p162
aVB
asg30
VQUAD
p163
sg32
Nsg33
I0
sg34
S''
sg35
(lp164
S'SR:C05-MG:G06B{Quad:H1}Fld-SP'
p165
asg38
F0
sg39
VG6
p166
sg41
g42
(g43
g44
F-0.63300400000000001
tRp167
(dp168
g47
I01
sg2
S'SR:C05-MG:G06B{Quad:H1}Fld-SP'
p169
sbsg49
g42
(g43
g44
F-0.63328670508238349
tRp170
(dp171
g47
I01
sg2
S'SR:C05-MG:G06B{Quad:H1}Fld-I'
p172
sbsg53
VQH1G6C05B
p173
sg55
VQH1G6C05B
p174
sg57
g58
sg2
VQH1G6C05B.value
p175
sg60
(lp176
S'SR:C05-MG:G06B{Quad:H1}Fld-I'
p177
asg63
Nsg64
VC05
p178
sg66
F0.27500000000000002
sg67
F153.10399999999998
sg68
F153.37899999999999
sba(iaphla.gui.TunerUtils.knob
Knob
p179
(dp180
g21
VA
sg22
g23
sg24
I660
sg25
(lp181
VQUAD
p182
aVC06
p183
aVG2
p184
aVA
asg30
VQUAD
p185
sg32
Nsg33
I0
sg34
S''
sg35
(lp186
S'SR:C06-MG:G02A{Quad:H1}Fld-SP'
p187
asg38
F0
sg39
VG2
p188
sg41
g42
(g43
g44
F-0.63300400000000001
tRp189
(dp190
g47
I01
sg2
S'SR:C06-MG:G02A{Quad:H1}Fld-SP'
p191
sbsg49
g42
(g43
g44
F-0.63289500276740673
tRp192
(dp193
g47
I01
sg2
S'SR:C06-MG:G02A{Quad:H1}Fld-I'
p194
sbsg53
VQH1G2C06A
p195
sg55
VQH1G2C06A
p196
sg57
g58
sg2
VQH1G2C06A.value
p197
sg60
(lp198
S'SR:C06-MG:G02A{Quad:H1}Fld-I'
p199
asg63
Nsg64
VC06
p200
sg66
F0.27500000000000002
sg67
F163.404
sg68
F163.679
sba(iaphla.gui.TunerUtils.knob
Knob
p201
(dp202
g21
VB
sg22
g23
sg24
I853
sg25
(lp203
VQUAD
p204
aVC07
p205
aVG6
p206
aVB
asg30
VQUAD
p207
sg32
Nsg33
I0
sg34
S''
sg35
(lp208
S'SR:C07-MG:G06B{Quad:H1}Fld-SP'
p209
asg38
F0
sg39
VG6
p210
sg41
g42
(g43
g44
F-0.63300400000000001
tRp211
(dp212
g47
I01
sg2
S'SR:C07-MG:G06B{Quad:H1}Fld-SP'
p213
sbsg49
g42
(g43
g44
F-0.63308898490415799
tRp214
(dp215
g47
I01
sg2
S'SR:C07-MG:G06B{Quad:H1}Fld-I'
p216
sbsg53
VQH1G6C07B
p217
sg55
VQH1G6C07B
p218
sg57
g58
sg2
VQH1G6C07B.value
p219
sg60
(lp220
S'SR:C07-MG:G06B{Quad:H1}Fld-I'
p221
asg63
Nsg64
VC07
p222
sg66
F0.27500000000000002
sg67
F205.90099999999998
sg68
F206.17599999999999
sba(iaphla.gui.TunerUtils.knob
Knob
p223
(dp224
g21
VA
sg22
g23
sg24
I876
sg25
(lp225
VQUAD
p226
aVC08
p227
aVG2
p228
aVA
asg30
VQUAD
p229
sg32
Nsg33
I0
sg34
S''
sg35
(lp230
S'SR:C08-MG:G02A{Quad:H1}Fld-SP'
p231
asg38
F0
sg39
VG2
p232
sg41
g42
(g43
g44
F-0.63300400000000001
tRp233
(dp234
g47
I01
sg2
S'SR:C08-MG:G02A{Quad:H1}Fld-SP'
p235
sbsg49
g42
(g43
g44
F-0.6327440322551614
tRp236
(dp237
g47
I01
sg2
S'SR:C08-MG:G02A{Quad:H1}Fld-I'
p238
sbsg53
VQH1G2C08A
p239
sg55
VQH1G2C08A
p240
sg57
g58
sg2
VQH1G2C08A.value
p241
sg60
(lp242
S'SR:C08-MG:G02A{Quad:H1}Fld-I'
p243
asg63
Nsg64
VC08
p244
sg66
F0.27500000000000002
sg67
F216.20099999999999
sg68
F216.476
sba(iaphla.gui.TunerUtils.knob
Knob
p245
(dp246
g21
VB
sg22
g23
sg24
I1069
sg25
(lp247
VQUAD
p248
aVC09
p249
aVG6
p250
aVB
asg30
VQUAD
p251
sg32
Nsg33
I0
sg34
S''
sg35
(lp252
S'SR:C09-MG:G06B{Quad:H1}Fld-SP'
p253
asg38
F0
sg39
VG6
p254
sg41
g42
(g43
g44
F-0.63300400000000001
tRp255
(dp256
g47
I01
sg2
S'SR:C09-MG:G06B{Quad:H1}Fld-SP'
p257
sbsg49
g42
(g43
g44
F-0.63300361846863507
tRp258
(dp259
g47
I01
sg2
S'SR:C09-MG:G06B{Quad:H1}Fld-I'
p260
sbsg53
VQH1G6C09B
p261
sg55
VQH1G6C09B
p262
sg57
g58
sg2
VQH1G6C09B.value
p263
sg60
(lp264
S'SR:C09-MG:G06B{Quad:H1}Fld-I'
p265
asg63
Nsg64
VC09
p266
sg66
F0.27500000000000002
sg67
F258.69800000000004
sg68
F258.97300000000001
sba(iaphla.gui.TunerUtils.knob
Knob
p267
(dp268
g21
VA
sg22
g23
sg24
I1092
sg25
(lp269
VQUAD
p270
aVC10
p271
aVG2
p272
aVA
asg30
VQUAD
p273
sg32
Nsg33
I0
sg34
S''
sg35
(lp274
S'SR:C10-MG:G02A{Quad:H1}Fld-SP'
p275
asg38
F0
sg39
VG2
p276
sg41
g42
(g43
g44
F-0.63300400000000001
tRp277
(dp278
g47
I01
sg2
S'SR:C10-MG:G02A{Quad:H1}Fld-SP'
p279
sbsg49
g42
(g43
g44
F-0.63327846593670567
tRp280
(dp281
g47
I01
sg2
S'SR:C10-MG:G02A{Quad:H1}Fld-I'
p282
sbsg53
VQH1G2C10A
p283
sg55
VQH1G2C10A
p284
sg57
g58
sg2
VQH1G2C10A.value
p285
sg60
(lp286
S'SR:C10-MG:G02A{Quad:H1}Fld-I'
p287
asg63
Nsg64
VC10
p288
sg66
F0.27500000000000002
sg67
F268.99800000000005
sg68
F269.27300000000002
sba(iaphla.gui.TunerUtils.knob
Knob
p289
(dp290
g21
VB
sg22
g23
sg24
I1285
sg25
(lp291
VQUAD
p292
aVC11
p293
aVG6
p294
aVB
asg30
VQUAD
p295
sg32
Nsg33
I0
sg34
S''
sg35
(lp296
S'SR:C11-MG:G06B{Quad:H1}Fld-SP'
p297
asg38
F0
sg39
VG6
p298
sg41
g42
(g43
g44
F-0.63300400000000001
tRp299
(dp300
g47
I01
sg2
S'SR:C11-MG:G06B{Quad:H1}Fld-SP'
p301
sbsg49
g42
(g43
g44
F-0.63306646006509504
tRp302
(dp303
g47
I01
sg2
S'SR:C11-MG:G06B{Quad:H1}Fld-I'
p304
sbsg53
VQH1G6C11B
p305
sg55
VQH1G6C11B
p306
sg57
g58
sg2
VQH1G6C11B.value
p307
sg60
(lp308
S'SR:C11-MG:G06B{Quad:H1}Fld-I'
p309
asg63
Nsg64
VC11
p310
sg66
F0.27500000000000002
sg67
F311.49600000000004
sg68
F311.77100000000002
sba(iaphla.gui.TunerUtils.knob
Knob
p311
(dp312
g21
VA
sg22
g23
sg24
I1308
sg25
(lp313
VQUAD
p314
aVC12
p315
aVG2
p316
aVA
asg30
VQUAD
p317
sg32
Nsg33
I0
sg34
S''
sg35
(lp318
S'SR:C12-MG:G02A{Quad:H1}Fld-SP'
p319
asg38
F0
sg39
VG2
p320
sg41
g42
(g43
g44
F-0.63300400000000001
tRp321
(dp322
g47
I01
sg2
S'SR:C12-MG:G02A{Quad:H1}Fld-SP'
p323
sbsg49
g42
(g43
g44
F-0.63289722434267037
tRp324
(dp325
g47
I01
sg2
S'SR:C12-MG:G02A{Quad:H1}Fld-I'
p326
sbsg53
VQH1G2C12A
p327
sg55
VQH1G2C12A
p328
sg57
g58
sg2
VQH1G2C12A.value
p329
sg60
(lp330
S'SR:C12-MG:G02A{Quad:H1}Fld-I'
p331
asg63
Nsg64
VC12
p332
sg66
F0.27500000000000002
sg67
F321.79600000000005
sg68
F322.07100000000003
sba(iaphla.gui.TunerUtils.knob
Knob
p333
(dp334
g21
VB
sg22
g23
sg24
I1501
sg25
(lp335
VQUAD
p336
aVC13
p337
aVG6
p338
aVB
asg30
VQUAD
p339
sg32
Nsg33
I0
sg34
S''
sg35
(lp340
S'SR:C13-MG:G06B{Quad:H1}Fld-SP'
p341
asg38
F0
sg39
VG6
p342
sg41
g42
(g43
g44
F-0.63300400000000001
tRp343
(dp344
g47
I01
sg2
S'SR:C13-MG:G06B{Quad:H1}Fld-SP'
p345
sbsg49
g42
(g43
g44
F-0.63298696631488516
tRp346
(dp347
g47
I01
sg2
S'SR:C13-MG:G06B{Quad:H1}Fld-I'
p348
sbsg53
VQH1G6C13B
p349
sg55
VQH1G6C13B
p350
sg57
g58
sg2
VQH1G6C13B.value
p351
sg60
(lp352
S'SR:C13-MG:G06B{Quad:H1}Fld-I'
p353
asg63
Nsg64
VC13
p354
sg66
F0.27500000000000002
sg67
F364.29300000000001
sg68
F364.56799999999998
sba(iaphla.gui.TunerUtils.knob
Knob
p355
(dp356
g21
VA
sg22
g23
sg24
I1524
sg25
(lp357
VQUAD
p358
aVC14
p359
aVG2
p360
aVA
asg30
VQUAD
p361
sg32
Nsg33
I0
sg34
S''
sg35
(lp362
S'SR:C14-MG:G02A{Quad:H1}Fld-SP'
p363
asg38
F0
sg39
VG2
p364
sg41
g42
(g43
g44
F-0.63300400000000001
tRp365
(dp366
g47
I01
sg2
S'SR:C14-MG:G02A{Quad:H1}Fld-SP'
p367
sbsg49
g42
(g43
g44
F-0.63311484210577551
tRp368
(dp369
g47
I01
sg2
S'SR:C14-MG:G02A{Quad:H1}Fld-I'
p370
sbsg53
VQH1G2C14A
p371
sg55
VQH1G2C14A
p372
sg57
g58
sg2
VQH1G2C14A.value
p373
sg60
(lp374
S'SR:C14-MG:G02A{Quad:H1}Fld-I'
p375
asg63
Nsg64
VC14
p376
sg66
F0.27500000000000002
sg67
F374.59300000000002
sg68
F374.86799999999999
sba(iaphla.gui.TunerUtils.knob
Knob
p377
(dp378
g21
VB
sg22
g23
sg24
I1717
sg25
(lp379
VQUAD
p380
aVC15
p381
aVG6
p382
aVB
asg30
VQUAD
p383
sg32
Nsg33
I0
sg34
S''
sg35
(lp384
S'SR:C15-MG:G06B{Quad:H1}Fld-SP'
p385
asg38
F0
sg39
VG6
p386
sg41
g42
(g43
g44
F-0.63300400000000001
tRp387
(dp388
g47
I01
sg2
S'SR:C15-MG:G06B{Quad:H1}Fld-SP'
p389
sbsg49
g42
(g43
g44
F-0.63317684336733049
tRp390
(dp391
g47
I01
sg2
S'SR:C15-MG:G06B{Quad:H1}Fld-I'
p392
sbsg53
VQH1G6C15B
p393
sg55
VQH1G6C15B
p394
sg57
g58
sg2
VQH1G6C15B.value
p395
sg60
(lp396
S'SR:C15-MG:G06B{Quad:H1}Fld-I'
p397
asg63
Nsg64
VC15
p398
sg66
F0.27500000000000002
sg67
F417.09000000000003
sg68
F417.36500000000001
sba(iaphla.gui.TunerUtils.knob
Knob
p399
(dp400
g21
VA
sg22
g23
sg24
I1740
sg25
(lp401
VQUAD
p402
aVC16
p403
aVG2
p404
aVA
asg30
VQUAD
p405
sg32
Nsg33
I0
sg34
S''
sg35
(lp406
S'SR:C16-MG:G02A{Quad:H1}Fld-SP'
p407
asg38
F0
sg39
VG2
p408
sg41
g42
(g43
g44
F-0.63300400000000001
tRp409
(dp410
g47
I01
sg2
S'SR:C16-MG:G02A{Quad:H1}Fld-SP'
p411
sbsg49
g42
(g43
g44
F-0.63294347173928434
tRp412
(dp413
g47
I01
sg2
S'SR:C16-MG:G02A{Quad:H1}Fld-I'
p414
sbsg53
VQH1G2C16A
p415
sg55
VQH1G2C16A
p416
sg57
g58
sg2
VQH1G2C16A.value
p417
sg60
(lp418
S'SR:C16-MG:G02A{Quad:H1}Fld-I'
p419
asg63
Nsg64
VC16
p420
sg66
F0.27500000000000002
sg67
F427.39000000000004
sg68
F427.66500000000002
sba(iaphla.gui.TunerUtils.knob
Knob
p421
(dp422
g21
VB
sg22
g23
sg24
I1933
sg25
(lp423
VQUAD
p424
aVC17
p425
aVG6
p426
aVB
asg30
VQUAD
p427
sg32
Nsg33
I0
sg34
S''
sg35
(lp428
S'SR:C17-MG:G06B{Quad:H1}Fld-SP'
p429
asg38
F0
sg39
VG6
p430
sg41
g42
(g43
g44
F-0.63300400000000001
tRp431
(dp432
g47
I01
sg2
S'SR:C17-MG:G06B{Quad:H1}Fld-SP'
p433
sbsg49
g42
(g43
g44
F-0.63324663945955595
tRp434
(dp435
g47
I01
sg2
S'SR:C17-MG:G06B{Quad:H1}Fld-I'
p436
sbsg53
VQH1G6C17B
p437
sg55
VQH1G6C17B
p438
sg57
g58
sg2
VQH1G6C17B.value
p439
sg60
(lp440
S'SR:C17-MG:G06B{Quad:H1}Fld-I'
p441
asg63
Nsg64
VC17
p442
sg66
F0.27500000000000002
sg67
F469.887
sg68
F470.16199999999998
sba(iaphla.gui.TunerUtils.knob
Knob
p443
(dp444
g21
VA
sg22
g23
sg24
I1956
sg25
(lp445
VQUAD
p446
aVC18
p447
aVG2
p448
aVA
asg30
VQUAD
p449
sg32
Nsg33
I0
sg34
S''
sg35
(lp450
S'SR:C18-MG:G02A{Quad:H1}Fld-SP'
p451
asg38
F0
sg39
VG2
p452
sg41
g42
(g43
g44
F-0.63300400000000001
tRp453
(dp454
g47
I01
sg2
S'SR:C18-MG:G02A{Quad:H1}Fld-SP'
p455
sbsg49
g42
(g43
g44
F-0.63277009229623871
tRp456
(dp457
g47
I01
sg2
S'SR:C18-MG:G02A{Quad:H1}Fld-I'
p458
sbsg53
VQH1G2C18A
p459
sg55
VQH1G2C18A
p460
sg57
g58
sg2
VQH1G2C18A.value
p461
sg60
(lp462
S'SR:C18-MG:G02A{Quad:H1}Fld-I'
p463
asg63
Nsg64
VC18
p464
sg66
F0.27500000000000002
sg67
F480.18700000000001
sg68
F480.46199999999999
sba(iaphla.gui.TunerUtils.knob
Knob
p465
(dp466
g21
VB
sg22
g23
sg24
I2149
sg25
(lp467
VQUAD
p468
aVC19
p469
aVG6
p470
aVB
asg30
VQUAD
p471
sg32
Nsg33
I0
sg34
S''
sg35
(lp472
S'SR:C19-MG:G06B{Quad:H1}Fld-SP'
p473
asg38
F0
sg39
VG6
p474
sg41
g42
(g43
g44
F-0.63300400000000001
tRp475
(dp476
g47
I01
sg2
S'SR:C19-MG:G06B{Quad:H1}Fld-SP'
p477
sbsg49
g42
(g43
g44
F-0.63303439211239798
tRp478
(dp479
g47
I01
sg2
S'SR:C19-MG:G06B{Quad:H1}Fld-I'
p480
sbsg53
VQH1G6C19B
p481
sg55
VQH1G6C19B
p482
sg57
g58
sg2
VQH1G6C19B.value
p483
sg60
(lp484
S'SR:C19-MG:G06B{Quad:H1}Fld-I'
p485
asg63
Nsg64
VC19
p486
sg66
F0.27500000000000002
sg67
F522.68399999999997
sg68
F522.95899999999995
sba(iaphla.gui.TunerUtils.knob
Knob
p487
(dp488
g21
VA
sg22
g23
sg24
I2172
sg25
(lp489
VQUAD
p490
aVC20
p491
aVG2
p492
aVA
asg30
VQUAD
p493
sg32
Nsg33
I0
sg34
S''
sg35
(lp494
S'SR:C20-MG:G02A{Quad:H1}Fld-SP'
p495
asg38
F0
sg39
VG2
p496
sg41
g42
(g43
g44
F-0.63300400000000001
tRp497
(dp498
g47
I01
sg2
S'SR:C20-MG:G02A{Quad:H1}Fld-SP'
p499
sbsg49
g42
(g43
g44
F-0.63316960875992978
tRp500
(dp501
g47
I01
sg2
S'SR:C20-MG:G02A{Quad:H1}Fld-I'
p502
sbsg53
VQH1G2C20A
p503
sg55
VQH1G2C20A
p504
sg57
g58
sg2
VQH1G2C20A.value
p505
sg60
(lp506
S'SR:C20-MG:G02A{Quad:H1}Fld-I'
p507
asg63
Nsg64
VC20
p508
sg66
F0.27500000000000002
sg67
F532.98400000000004
sg68
F533.25900000000001
sba(iaphla.gui.TunerUtils.knob
Knob
p509
(dp510
g21
VB
sg22
g23
sg24
I2365
sg25
(lp511
VQUAD
p512
aVC21
p513
aVG6
p514
aVB
asg30
VQUAD
p515
sg32
Nsg33
I0
sg34
S''
sg35
(lp516
S'SR:C21-MG:G06B{Quad:H1}Fld-SP'
p517
asg38
F0
sg39
VG6
p518
sg41
g42
(g43
g44
F-0.63300400000000001
tRp519
(dp520
g47
I01
sg2
S'SR:C21-MG:G06B{Quad:H1}Fld-SP'
p521
sbsg49
g42
(g43
g44
F-0.63300126166729231
tRp522
(dp523
g47
I01
sg2
S'SR:C21-MG:G06B{Quad:H1}Fld-I'
p524
sbsg53
VQH1G6C21B
p525
sg55
VQH1G6C21B
p526
sg57
g58
sg2
VQH1G6C21B.value
p527
sg60
(lp528
S'SR:C21-MG:G06B{Quad:H1}Fld-I'
p529
asg63
Nsg64
VC21
p530
sg66
F0.27500000000000002
sg67
F575.48199999999997
sg68
F575.75699999999995
sba(iaphla.gui.TunerUtils.knob
Knob
p531
(dp532
g21
VA
sg22
g23
sg24
I2388
sg25
(lp533
VQUAD
p534
aVC22
p535
aVG2
p536
aVA
asg30
VQUAD
p537
sg32
Nsg33
I0
sg34
S''
sg35
(lp538
S'SR:C22-MG:G02A{Quad:H1}Fld-SP'
p539
asg38
F0
sg39
VG2
p540
sg41
g42
(g43
g44
F-0.63300400000000001
tRp541
(dp542
g47
I01
sg2
S'SR:C22-MG:G02A{Quad:H1}Fld-SP'
p543
sbsg49
g42
(g43
g44
F-0.63308493777398334
tRp544
(dp545
g47
I01
sg2
S'SR:C22-MG:G02A{Quad:H1}Fld-I'
p546
sbsg53
VQH1G2C22A
p547
sg55
VQH1G2C22A
p548
sg57
g58
sg2
VQH1G2C22A.value
p549
sg60
(lp550
S'SR:C22-MG:G02A{Quad:H1}Fld-I'
p551
asg63
Nsg64
VC22
p552
sg66
F0.27500000000000002
sg67
F585.78200000000004
sg68
F586.05700000000002
sba(iaphla.gui.TunerUtils.knob
Knob
p553
(dp554
g21
VB
sg22
g23
sg24
I2581
sg25
(lp555
VQUAD
p556
aVC23
p557
aVG6
p558
aVB
asg30
VQUAD
p559
sg32
Nsg33
I0
sg34
S''
sg35
(lp560
S'SR:C23-MG:G06B{Quad:H1}Fld-SP'
p561
asg38
F0
sg39
VG6
p562
sg41
g42
(g43
g44
F-0.63300400000000001
tRp563
(dp564
g47
I01
sg2
S'SR:C23-MG:G06B{Quad:H1}Fld-SP'
p565
sbsg49
g42
(g43
g44
F-0.63272812384609756
tRp566
(dp567
g47
I01
sg2
S'SR:C23-MG:G06B{Quad:H1}Fld-I'
p568
sbsg53
VQH1G6C23B
p569
sg55
VQH1G6C23B
p570
sg57
g58
sg2
VQH1G6C23B.value
p571
sg60
(lp572
S'SR:C23-MG:G06B{Quad:H1}Fld-I'
p573
asg63
Nsg64
VC23
p574
sg66
F0.27500000000000002
sg67
F628.279
sg68
F628.55399999999997
sba(iaphla.gui.TunerUtils.knob
Knob
p575
(dp576
g21
VA
sg22
g23
sg24
I2604
sg25
(lp577
VQUAD
p578
aVC24
p579
aVG2
p580
aVA
asg30
VQUAD
p581
sg32
Nsg33
I0
sg34
S''
sg35
(lp582
S'SR:C24-MG:G02A{Quad:H1}Fld-SP'
p583
asg38
F0
sg39
VG2
p584
sg41
g42
(g43
g44
F-0.63300400000000001
tRp585
(dp586
g47
I01
sg2
S'SR:C24-MG:G02A{Quad:H1}Fld-SP'
p587
sbsg49
g42
(g43
g44
F-0.63307120264484629
tRp588
(dp589
g47
I01
sg2
S'SR:C24-MG:G02A{Quad:H1}Fld-I'
p590
sbsg53
VQH1G2C24A
p591
sg55
VQH1G2C24A
p592
sg57
g58
sg2
VQH1G2C24A.value
p593
sg60
(lp594
S'SR:C24-MG:G02A{Quad:H1}Fld-I'
p595
asg63
Nsg64
VC24
p596
sg66
F0.27500000000000002
sg67
F638.57900000000006
sg68
F638.85400000000004
sba(iaphla.gui.TunerUtils.knob
Knob
p597
(dp598
g21
VB
sg22
g23
sg24
I2797
sg25
(lp599
VQUAD
p600
aVC25
p601
aVG6
p602
aVB
asg30
VQUAD
p603
sg32
Nsg33
I0
sg34
S''
sg35
(lp604
S'SR:C25-MG:G06B{Quad:H1}Fld-SP'
p605
asg38
F0
sg39
VG6
p606
sg41
g42
(g43
g44
F-0.63300400000000001
tRp607
(dp608
g47
I01
sg2
S'SR:C25-MG:G06B{Quad:H1}Fld-SP'
p609
sbsg49
g42
(g43
g44
F-0.63321024426504924
tRp610
(dp611
g47
I01
sg2
S'SR:C25-MG:G06B{Quad:H1}Fld-I'
p612
sbsg53
VQH1G6C25B
p613
sg55
VQH1G6C25B
p614
sg57
g58
sg2
VQH1G6C25B.value
p615
sg60
(lp616
S'SR:C25-MG:G06B{Quad:H1}Fld-I'
p617
asg63
Nsg64
VC25
p618
sg66
F0.27500000000000002
sg67
F681.07600000000002
sg68
F681.351
sba(iaphla.gui.TunerUtils.knob
Knob
p619
(dp620
g21
VA
sg22
g23
sg24
I2820
sg25
(lp621
VQUAD
p622
aVC26
p623
aVG2
p624
aVA
asg30
VQUAD
p625
sg32
Nsg33
I0
sg34
S''
sg35
(lp626
S'SR:C26-MG:G02A{Quad:H1}Fld-SP'
p627
asg38
F0
sg39
VG2
p628
sg41
g42
(g43
g44
F-0.63300400000000001
tRp629
(dp630
g47
I01
sg2
S'SR:C26-MG:G02A{Quad:H1}Fld-SP'
p631
sbsg49
g42
(g43
g44
F-0.63284280541307691
tRp632
(dp633
g47
I01
sg2
S'SR:C26-MG:G02A{Quad:H1}Fld-I'
p634
sbsg53
VQH1G2C26A
p635
sg55
VQH1G2C26A
p636
sg57
g58
sg2
VQH1G2C26A.value
p637
sg60
(lp638
S'SR:C26-MG:G02A{Quad:H1}Fld-I'
p639
asg63
Nsg64
VC26
p640
sg66
F0.27500000000000002
sg67
F691.37599999999998
sg68
F691.65099999999995
sba(iaphla.gui.TunerUtils.knob
Knob
p641
(dp642
g21
VB
sg22
g23
sg24
I3013
sg25
(lp643
VQUAD
p644
aVC27
p645
aVG6
p646
aVB
asg30
VQUAD
p647
sg32
Nsg33
I0
sg34
S''
sg35
(lp648
S'SR:C27-MG:G06B{Quad:H1}Fld-SP'
p649
asg38
F0
sg39
VG6
p650
sg41
g42
(g43
g44
F-0.63300400000000001
tRp651
(dp652
g47
I01
sg2
S'SR:C27-MG:G06B{Quad:H1}Fld-SP'
p653
sbsg49
g42
(g43
g44
F-0.63282181635849544
tRp654
(dp655
g47
I01
sg2
S'SR:C27-MG:G06B{Quad:H1}Fld-I'
p656
sbsg53
VQH1G6C27B
p657
sg55
VQH1G6C27B
p658
sg57
g58
sg2
VQH1G6C27B.value
p659
sg60
(lp660
S'SR:C27-MG:G06B{Quad:H1}Fld-I'
p661
asg63
Nsg64
VC27
p662
sg66
F0.27500000000000002
sg67
F733.87300000000005
sg68
F734.14800000000002
sba(iaphla.gui.TunerUtils.knob
Knob
p663
(dp664
g21
VA
sg22
g23
sg24
I3036
sg25
(lp665
VQUAD
p666
aVC28
p667
aVG2
p668
aVA
asg30
VQUAD
p669
sg32
Nsg33
I0
sg34
S''
sg35
(lp670
S'SR:C28-MG:G02A{Quad:H1}Fld-SP'
p671
asg38
F0
sg39
VG2
p672
sg41
g42
(g43
g44
F-0.63300400000000001
tRp673
(dp674
g47
I01
sg2
S'SR:C28-MG:G02A{Quad:H1}Fld-SP'
p675
sbsg49
g42
(g43
g44
F-0.6332515945377889
tRp676
(dp677
g47
I01
sg2
S'SR:C28-MG:G02A{Quad:H1}Fld-I'
p678
sbsg53
VQH1G2C28A
p679
sg55
VQH1G2C28A
p680
sg57
g58
sg2
VQH1G2C28A.value
p681
sg60
(lp682
S'SR:C28-MG:G02A{Quad:H1}Fld-I'
p683
asg63
Nsg64
VC28
p684
sg66
F0.27500000000000002
sg67
F744.173
sg68
F744.44799999999998
sba(iaphla.gui.TunerUtils.knob
Knob
p685
(dp686
g21
VB
sg22
g23
sg24
I3233
sg25
(lp687
VQUAD
p688
aVC29
p689
aVG6
p690
aVB
asg30
VQUAD
p691
sg32
Nsg33
I0
sg34
S''
sg35
(lp692
S'SR:C29-MG:G06B{Quad:H1}Fld-SP'
p693
asg38
F0
sg39
VG6
p694
sg41
g42
(g43
g44
F-0.63300400000000001
tRp695
(dp696
g47
I01
sg2
S'SR:C29-MG:G06B{Quad:H1}Fld-SP'
p697
sbsg49
g42
(g43
g44
F-0.63319746537907984
tRp698
(dp699
g47
I01
sg2
S'SR:C29-MG:G06B{Quad:H1}Fld-I'
p700
sbsg53
VQH1G6C29B
p701
sg55
VQH1G6C29B
p702
sg57
g58
sg2
VQH1G6C29B.value
p703
sg60
(lp704
S'SR:C29-MG:G06B{Quad:H1}Fld-I'
p705
asg63
Nsg64
VC29
p706
sg66
F0.27500000000000002
sg67
F786.67100000000005
sg68
F786.94600000000003
sbasg2
g12
sS'weight'
p707
F1
sba(iaphla.gui.TunerUtils.knob
KnobGroup
p708
(dp709
g17
(lp710
(iaphla.gui.TunerUtils.knob
Knob
p711
(dp712
g21
VA
sg22
g23
sg24
I18
sg25
(lp713
VQUAD
p714
aVC30
p715
aVG2
p716
aVA
asg30
VQUAD
p717
sg32
Nsg33
I0
sg34
S''
sg35
(lp718
S'SR:C30-MG:G02A{Quad:H2}Fld-SP'
p719
asg38
F0
sg39
VG2
p720
sg41
g42
(g43
g44
F1.4776499999999999
tRp721
(dp722
g47
I01
sg2
S'SR:C30-MG:G02A{Quad:H2}Fld-SP'
p723
sbsg49
g42
(g43
g44
F1.4773939168402379
tRp724
(dp725
g47
I01
sg2
S'SR:C30-MG:G02A{Quad:H2}Fld-I'
p726
sbsg53
VQH2G2C30A
p727
sg55
VQH2G2C30A
p728
sg57
g58
sg2
VQH2G2C30A.value
p729
sg60
(lp730
S'SR:C30-MG:G02A{Quad:H2}Fld-I'
p731
asg63
Nsg64
VC30
p732
sg66
F0.44800000000000001
sg67
F6.0919999999999996
sg68
F6.54
sba(iaphla.gui.TunerUtils.knob
Knob
p733
(dp734
g21
VB
sg22
g23
sg24
I199
sg25
(lp735
VQUAD
p736
aVC01
p737
aVG6
p738
aVB
asg30
VQUAD
p739
sg32
Nsg33
I0
sg34
S''
sg35
(lp740
S'SR:C01-MG:G06B{Quad:H2}Fld-SP'
p741
asg38
F0
sg39
VG6
p742
sg41
g42
(g43
g44
F1.4776499999999999
tRp743
(dp744
g47
I01
sg2
S'SR:C01-MG:G06B{Quad:H2}Fld-SP'
p745
sbsg49
g42
(g43
g44
F1.4769240496189058
tRp746
(dp747
g47
I01
sg2
S'SR:C01-MG:G06B{Quad:H2}Fld-I'
p748
sbsg53
VQH2G6C01B
p749
sg55
VQH2G6C01B
p750
sg57
g58
sg2
VQH2G6C01B.value
p751
sg60
(lp752
S'SR:C01-MG:G06B{Quad:H2}Fld-I'
p753
asg63
Nsg64
VC01
p754
sg66
F0.44800000000000001
sg67
F46.257199999999997
sg68
F46.705199999999998
sba(iaphla.gui.TunerUtils.knob
Knob
p755
(dp756
g21
VA
sg22
g23
sg24
I234
sg25
(lp757
VQUAD
p758
aVC02
p759
aVG2
p760
aVA
asg30
VQUAD
p761
sg32
Nsg33
I0
sg34
S''
sg35
(lp762
S'SR:C02-MG:G02A{Quad:H2}Fld-SP'
p763
asg38
F0
sg39
VG2
p764
sg41
g42
(g43
g44
F1.4776499999999999
tRp765
(dp766
g47
I01
sg2
S'SR:C02-MG:G02A{Quad:H2}Fld-SP'
p767
sbsg49
g42
(g43
g44
F1.4778606048649574
tRp768
(dp769
g47
I01
sg2
S'SR:C02-MG:G02A{Quad:H2}Fld-I'
p770
sbsg53
VQH2G2C02A
p771
sg55
VQH2G2C02A
p772
sg57
g58
sg2
VQH2G2C02A.value
p773
sg60
(lp774
S'SR:C02-MG:G02A{Quad:H2}Fld-I'
p775
asg63
Nsg64
VC02
p776
sg66
F0.44800000000000001
sg67
F58.889200000000002
sg68
F59.337200000000003
sba(iaphla.gui.TunerUtils.knob
Knob
p777
(dp778
g21
VB
sg22
g23
sg24
I415
sg25
(lp779
VQUAD
p780
aVC03
p781
aVG6
p782
aVB
asg30
VQUAD
p783
sg32
Nsg33
I0
sg34
S''
sg35
(lp784
S'SR:C03-MG:G06B{Quad:H2}Fld-SP'
p785
asg38
F0
sg39
VG6
p786
sg41
g42
(g43
g44
F1.4776499999999999
tRp787
(dp788
g47
I01
sg2
S'SR:C03-MG:G06B{Quad:H2}Fld-SP'
p789
sbsg49
g42
(g43
g44
F1.4769150757164109
tRp790
(dp791
g47
I01
sg2
S'SR:C03-MG:G06B{Quad:H2}Fld-I'
p792
sbsg53
VQH2G6C03B
p793
sg55
VQH2G6C03B
p794
sg57
g58
sg2
VQH2G6C03B.value
p795
sg60
(lp796
S'SR:C03-MG:G06B{Quad:H2}Fld-I'
p797
asg63
Nsg64
VC03
p798
sg66
F0.44800000000000001
sg67
F99.054400000000001
sg68
F99.502399999999994
sba(iaphla.gui.TunerUtils.knob
Knob
p799
(dp800
g21
VA
sg22
g23
sg24
I450
sg25
(lp801
VQUAD
p802
aVC04
p803
aVG2
p804
aVA
asg30
VQUAD
p805
sg32
Nsg33
I0
sg34
S''
sg35
(lp806
S'SR:C04-MG:G02A{Quad:H2}Fld-SP'
p807
asg38
F0
sg39
VG2
p808
sg41
g42
(g43
g44
F1.4776499999999999
tRp809
(dp810
g47
I01
sg2
S'SR:C04-MG:G02A{Quad:H2}Fld-SP'
p811
sbsg49
g42
(g43
g44
F1.4772475385111008
tRp812
(dp813
g47
I01
sg2
S'SR:C04-MG:G02A{Quad:H2}Fld-I'
p814
sbsg53
VQH2G2C04A
p815
sg55
VQH2G2C04A
p816
sg57
g58
sg2
VQH2G2C04A.value
p817
sg60
(lp818
S'SR:C04-MG:G02A{Quad:H2}Fld-I'
p819
asg63
Nsg64
VC04
p820
sg66
F0.44800000000000001
sg67
F111.68600000000001
sg68
F112.134
sba(iaphla.gui.TunerUtils.knob
Knob
p821
(dp822
g21
VB
sg22
g23
sg24
I631
sg25
(lp823
VQUAD
p824
aVC05
p825
aVG6
p826
aVB
asg30
VQUAD
p827
sg32
Nsg33
I0
sg34
S''
sg35
(lp828
S'SR:C05-MG:G06B{Quad:H2}Fld-SP'
p829
asg38
F0
sg39
VG6
p830
sg41
g42
(g43
g44
F1.4776499999999999
tRp831
(dp832
g47
I01
sg2
S'SR:C05-MG:G06B{Quad:H2}Fld-SP'
p833
sbsg49
g42
(g43
g44
F1.4769591335191119
tRp834
(dp835
g47
I01
sg2
S'SR:C05-MG:G06B{Quad:H2}Fld-I'
p836
sbsg53
VQH2G6C05B
p837
sg55
VQH2G6C05B
p838
sg57
g58
sg2
VQH2G6C05B.value
p839
sg60
(lp840
S'SR:C05-MG:G06B{Quad:H2}Fld-I'
p841
asg63
Nsg64
VC05
p842
sg66
F0.44800000000000001
sg67
F151.852
sg68
F152.30000000000001
sba(iaphla.gui.TunerUtils.knob
Knob
p843
(dp844
g21
VA
sg22
g23
sg24
I666
sg25
(lp845
VQUAD
p846
aVC06
p847
aVG2
p848
aVA
asg30
VQUAD
p849
sg32
Nsg33
I0
sg34
S''
sg35
(lp850
S'SR:C06-MG:G02A{Quad:H2}Fld-SP'
p851
asg38
F0
sg39
VG2
p852
sg41
g42
(g43
g44
F1.4776499999999999
tRp853
(dp854
g47
I01
sg2
S'SR:C06-MG:G02A{Quad:H2}Fld-SP'
p855
sbsg49
g42
(g43
g44
F1.4779703660643166
tRp856
(dp857
g47
I01
sg2
S'SR:C06-MG:G02A{Quad:H2}Fld-I'
p858
sbsg53
VQH2G2C06A
p859
sg55
VQH2G2C06A
p860
sg57
g58
sg2
VQH2G2C06A.value
p861
sg60
(lp862
S'SR:C06-MG:G02A{Quad:H2}Fld-I'
p863
asg63
Nsg64
VC06
p864
sg66
F0.44800000000000001
sg67
F164.48399999999998
sg68
F164.93199999999999
sba(iaphla.gui.TunerUtils.knob
Knob
p865
(dp866
g21
VB
sg22
g23
sg24
I847
sg25
(lp867
VQUAD
p868
aVC07
p869
aVG6
p870
aVB
asg30
VQUAD
p871
sg32
Nsg33
I0
sg34
S''
sg35
(lp872
S'SR:C07-MG:G06B{Quad:H2}Fld-SP'
p873
asg38
F0
sg39
VG6
p874
sg41
g42
(g43
g44
F1.4776499999999999
tRp875
(dp876
g47
I01
sg2
S'SR:C07-MG:G06B{Quad:H2}Fld-SP'
p877
sbsg49
g42
(g43
g44
F1.4775670590444037
tRp878
(dp879
g47
I01
sg2
S'SR:C07-MG:G06B{Quad:H2}Fld-I'
p880
sbsg53
VQH2G6C07B
p881
sg55
VQH2G6C07B
p882
sg57
g58
sg2
VQH2G6C07B.value
p883
sg60
(lp884
S'SR:C07-MG:G06B{Quad:H2}Fld-I'
p885
asg63
Nsg64
VC07
p886
sg66
F0.44800000000000001
sg67
F204.649
sg68
F205.09700000000001
sba(iaphla.gui.TunerUtils.knob
Knob
p887
(dp888
g21
VA
sg22
g23
sg24
I882
sg25
(lp889
VQUAD
p890
aVC08
p891
aVG2
p892
aVA
asg30
VQUAD
p893
sg32
Nsg33
I0
sg34
S''
sg35
(lp894
S'SR:C08-MG:G02A{Quad:H2}Fld-SP'
p895
asg38
F0
sg39
VG2
p896
sg41
g42
(g43
g44
F1.4776499999999999
tRp897
(dp898
g47
I01
sg2
S'SR:C08-MG:G02A{Quad:H2}Fld-SP'
p899
sbsg49
g42
(g43
g44
F1.4770650841920347
tRp900
(dp901
g47
I01
sg2
S'SR:C08-MG:G02A{Quad:H2}Fld-I'
p902
sbsg53
VQH2G2C08A
p903
sg55
VQH2G2C08A
p904
sg57
g58
sg2
VQH2G2C08A.value
p905
sg60
(lp906
S'SR:C08-MG:G02A{Quad:H2}Fld-I'
p907
asg63
Nsg64
VC08
p908
sg66
F0.44800000000000001
sg67
F217.28100000000001
sg68
F217.72900000000001
sba(iaphla.gui.TunerUtils.knob
Knob
p909
(dp910
g21
VB
sg22
g23
sg24
I1063
sg25
(lp911
VQUAD
p912
aVC09
p913
aVG6
p914
aVB
asg30
VQUAD
p915
sg32
Nsg33
I0
sg34
S''
sg35
(lp916
S'SR:C09-MG:G06B{Quad:H2}Fld-SP'
p917
asg38
F0
sg39
VG6
p918
sg41
g42
(g43
g44
F1.4776499999999999
tRp919
(dp920
g47
I01
sg2
S'SR:C09-MG:G06B{Quad:H2}Fld-SP'
p921
sbsg49
g42
(g43
g44
F1.4776565725944151
tRp922
(dp923
g47
I01
sg2
S'SR:C09-MG:G06B{Quad:H2}Fld-I'
p924
sbsg53
VQH2G6C09B
p925
sg55
VQH2G6C09B
p926
sg57
g58
sg2
VQH2G6C09B.value
p927
sg60
(lp928
S'SR:C09-MG:G06B{Quad:H2}Fld-I'
p929
asg63
Nsg64
VC09
p930
sg66
F0.44800000000000001
sg67
F257.44600000000003
sg68
F257.89400000000001
sba(iaphla.gui.TunerUtils.knob
Knob
p931
(dp932
g21
VA
sg22
g23
sg24
I1098
sg25
(lp933
VQUAD
p934
aVC10
p935
aVG2
p936
aVA
asg30
VQUAD
p937
sg32
Nsg33
I0
sg34
S''
sg35
(lp938
S'SR:C10-MG:G02A{Quad:H2}Fld-SP'
p939
asg38
F0
sg39
VG2
p940
sg41
g42
(g43
g44
F1.4776499999999999
tRp941
(dp942
g47
I01
sg2
S'SR:C10-MG:G02A{Quad:H2}Fld-SP'
p943
sbsg49
g42
(g43
g44
F1.4774552911181047
tRp944
(dp945
g47
I01
sg2
S'SR:C10-MG:G02A{Quad:H2}Fld-I'
p946
sbsg53
VQH2G2C10A
p947
sg55
VQH2G2C10A
p948
sg57
g58
sg2
VQH2G2C10A.value
p949
sg60
(lp950
S'SR:C10-MG:G02A{Quad:H2}Fld-I'
p951
asg63
Nsg64
VC10
p952
sg66
F0.44800000000000001
sg67
F270.07800000000003
sg68
F270.52600000000001
sba(iaphla.gui.TunerUtils.knob
Knob
p953
(dp954
g21
VB
sg22
g23
sg24
I1279
sg25
(lp955
VQUAD
p956
aVC11
p957
aVG6
p958
aVB
asg30
VQUAD
p959
sg32
Nsg33
I0
sg34
S''
sg35
(lp960
S'SR:C11-MG:G06B{Quad:H2}Fld-SP'
p961
asg38
F0
sg39
VG6
p962
sg41
g42
(g43
g44
F1.4776499999999999
tRp963
(dp964
g47
I01
sg2
S'SR:C11-MG:G06B{Quad:H2}Fld-SP'
p965
sbsg49
g42
(g43
g44
F1.4776923329194322
tRp966
(dp967
g47
I01
sg2
S'SR:C11-MG:G06B{Quad:H2}Fld-I'
p968
sbsg53
VQH2G6C11B
p969
sg55
VQH2G6C11B
p970
sg57
g58
sg2
VQH2G6C11B.value
p971
sg60
(lp972
S'SR:C11-MG:G06B{Quad:H2}Fld-I'
p973
asg63
Nsg64
VC11
p974
sg66
F0.44800000000000001
sg67
F310.24299999999999
sg68
F310.69099999999997
sba(iaphla.gui.TunerUtils.knob
Knob
p975
(dp976
g21
VA
sg22
g23
sg24
I1314
sg25
(lp977
VQUAD
p978
aVC12
p979
aVG2
p980
aVA
asg30
VQUAD
p981
sg32
Nsg33
I0
sg34
S''
sg35
(lp982
S'SR:C12-MG:G02A{Quad:H2}Fld-SP'
p983
asg38
F0
sg39
VG2
p984
sg41
g42
(g43
g44
F1.4776499999999999
tRp985
(dp986
g47
I01
sg2
S'SR:C12-MG:G02A{Quad:H2}Fld-SP'
p987
sbsg49
g42
(g43
g44
F1.4770543515850307
tRp988
(dp989
g47
I01
sg2
S'SR:C12-MG:G02A{Quad:H2}Fld-I'
p990
sbsg53
VQH2G2C12A
p991
sg55
VQH2G2C12A
p992
sg57
g58
sg2
VQH2G2C12A.value
p993
sg60
(lp994
S'SR:C12-MG:G02A{Quad:H2}Fld-I'
p995
asg63
Nsg64
VC12
p996
sg66
F0.44800000000000001
sg67
F322.875
sg68
F323.32299999999998
sba(iaphla.gui.TunerUtils.knob
Knob
p997
(dp998
g21
VB
sg22
g23
sg24
I1495
sg25
(lp999
VQUAD
p1000
aVC13
p1001
aVG6
p1002
aVB
asg30
VQUAD
p1003
sg32
Nsg33
I0
sg34
S''
sg35
(lp1004
S'SR:C13-MG:G06B{Quad:H2}Fld-SP'
p1005
asg38
F0
sg39
VG6
p1006
sg41
g42
(g43
g44
F1.4776499999999999
tRp1007
(dp1008
g47
I01
sg2
S'SR:C13-MG:G06B{Quad:H2}Fld-SP'
p1009
sbsg49
g42
(g43
g44
F1.4769153011913481
tRp1010
(dp1011
g47
I01
sg2
S'SR:C13-MG:G06B{Quad:H2}Fld-I'
p1012
sbsg53
VQH2G6C13B
p1013
sg55
VQH2G6C13B
p1014
sg57
g58
sg2
VQH2G6C13B.value
p1015
sg60
(lp1016
S'SR:C13-MG:G06B{Quad:H2}Fld-I'
p1017
asg63
Nsg64
VC13
p1018
sg66
F0.44800000000000001
sg67
F363.04000000000002
sg68
F363.488
sba(iaphla.gui.TunerUtils.knob
Knob
p1019
(dp1020
g21
VA
sg22
g23
sg24
I1530
sg25
(lp1021
VQUAD
p1022
aVC14
p1023
aVG2
p1024
aVA
asg30
VQUAD
p1025
sg32
Nsg33
I0
sg34
S''
sg35
(lp1026
S'SR:C14-MG:G02A{Quad:H2}Fld-SP'
p1027
asg38
F0
sg39
VG2
p1028
sg41
g42
(g43
g44
F1.4776499999999999
tRp1029
(dp1030
g47
I01
sg2
S'SR:C14-MG:G02A{Quad:H2}Fld-SP'
p1031
sbsg49
g42
(g43
g44
F1.4770773049336232
tRp1032
(dp1033
g47
I01
sg2
S'SR:C14-MG:G02A{Quad:H2}Fld-I'
p1034
sbsg53
VQH2G2C14A
p1035
sg55
VQH2G2C14A
p1036
sg57
g58
sg2
VQH2G2C14A.value
p1037
sg60
(lp1038
S'SR:C14-MG:G02A{Quad:H2}Fld-I'
p1039
asg63
Nsg64
VC14
p1040
sg66
F0.44800000000000001
sg67
F375.67200000000003
sg68
F376.12
sba(iaphla.gui.TunerUtils.knob
Knob
p1041
(dp1042
g21
VB
sg22
g23
sg24
I1711
sg25
(lp1043
VQUAD
p1044
aVC15
p1045
aVG6
p1046
aVB
asg30
VQUAD
p1047
sg32
Nsg33
I0
sg34
S''
sg35
(lp1048
S'SR:C15-MG:G06B{Quad:H2}Fld-SP'
p1049
asg38
F0
sg39
VG6
p1050
sg41
g42
(g43
g44
F1.4776499999999999
tRp1051
(dp1052
g47
I01
sg2
S'SR:C15-MG:G06B{Quad:H2}Fld-SP'
p1053
sbsg49
g42
(g43
g44
F1.4779604677145799
tRp1054
(dp1055
g47
I01
sg2
S'SR:C15-MG:G06B{Quad:H2}Fld-I'
p1056
sbsg53
VQH2G6C15B
p1057
sg55
VQH2G6C15B
p1058
sg57
g58
sg2
VQH2G6C15B.value
p1059
sg60
(lp1060
S'SR:C15-MG:G06B{Quad:H2}Fld-I'
p1061
asg63
Nsg64
VC15
p1062
sg66
F0.44800000000000001
sg67
F415.83800000000002
sg68
F416.286
sba(iaphla.gui.TunerUtils.knob
Knob
p1063
(dp1064
g21
VA
sg22
g23
sg24
I1746
sg25
(lp1065
VQUAD
p1066
aVC16
p1067
aVG2
p1068
aVA
asg30
VQUAD
p1069
sg32
Nsg33
I0
sg34
S''
sg35
(lp1070
S'SR:C16-MG:G02A{Quad:H2}Fld-SP'
p1071
asg38
F0
sg39
VG2
p1072
sg41
g42
(g43
g44
F1.4776499999999999
tRp1073
(dp1074
g47
I01
sg2
S'SR:C16-MG:G02A{Quad:H2}Fld-SP'
p1075
sbsg49
g42
(g43
g44
F1.477053720255207
tRp1076
(dp1077
g47
I01
sg2
S'SR:C16-MG:G02A{Quad:H2}Fld-I'
p1078
sbsg53
VQH2G2C16A
p1079
sg55
VQH2G2C16A
p1080
sg57
g58
sg2
VQH2G2C16A.value
p1081
sg60
(lp1082
S'SR:C16-MG:G02A{Quad:H2}Fld-I'
p1083
asg63
Nsg64
VC16
p1084
sg66
F0.44800000000000001
sg67
F428.47000000000003
sg68
F428.91800000000001
sba(iaphla.gui.TunerUtils.knob
Knob
p1085
(dp1086
g21
VB
sg22
g23
sg24
I1927
sg25
(lp1087
VQUAD
p1088
aVC17
p1089
aVG6
p1090
aVB
asg30
VQUAD
p1091
sg32
Nsg33
I0
sg34
S''
sg35
(lp1092
S'SR:C17-MG:G06B{Quad:H2}Fld-SP'
p1093
asg38
F0
sg39
VG6
p1094
sg41
g42
(g43
g44
F1.4776499999999999
tRp1095
(dp1096
g47
I01
sg2
S'SR:C17-MG:G06B{Quad:H2}Fld-SP'
p1097
sbsg49
g42
(g43
g44
F1.4781755257095444
tRp1098
(dp1099
g47
I01
sg2
S'SR:C17-MG:G06B{Quad:H2}Fld-I'
p1100
sbsg53
VQH2G6C17B
p1101
sg55
VQH2G6C17B
p1102
sg57
g58
sg2
VQH2G6C17B.value
p1103
sg60
(lp1104
S'SR:C17-MG:G06B{Quad:H2}Fld-I'
p1105
asg63
Nsg64
VC17
p1106
sg66
F0.44800000000000001
sg67
F468.63500000000005
sg68
F469.08300000000003
sba(iaphla.gui.TunerUtils.knob
Knob
p1107
(dp1108
g21
VA
sg22
g23
sg24
I1962
sg25
(lp1109
VQUAD
p1110
aVC18
p1111
aVG2
p1112
aVA
asg30
VQUAD
p1113
sg32
Nsg33
I0
sg34
S''
sg35
(lp1114
S'SR:C18-MG:G02A{Quad:H2}Fld-SP'
p1115
asg38
F0
sg39
VG2
p1116
sg41
g42
(g43
g44
F1.4776499999999999
tRp1117
(dp1118
g47
I01
sg2
S'SR:C18-MG:G02A{Quad:H2}Fld-SP'
p1119
sbsg49
g42
(g43
g44
F1.4772289142813
tRp1120
(dp1121
g47
I01
sg2
S'SR:C18-MG:G02A{Quad:H2}Fld-I'
p1122
sbsg53
VQH2G2C18A
p1123
sg55
VQH2G2C18A
p1124
sg57
g58
sg2
VQH2G2C18A.value
p1125
sg60
(lp1126
S'SR:C18-MG:G02A{Quad:H2}Fld-I'
p1127
asg63
Nsg64
VC18
p1128
sg66
F0.44800000000000001
sg67
F481.267
sg68
F481.71499999999997
sba(iaphla.gui.TunerUtils.knob
Knob
p1129
(dp1130
g21
VB
sg22
g23
sg24
I2143
sg25
(lp1131
VQUAD
p1132
aVC19
p1133
aVG6
p1134
aVB
asg30
VQUAD
p1135
sg32
Nsg33
I0
sg34
S''
sg35
(lp1136
S'SR:C19-MG:G06B{Quad:H2}Fld-SP'
p1137
asg38
F0
sg39
VG6
p1138
sg41
g42
(g43
g44
F1.4776499999999999
tRp1139
(dp1140
g47
I01
sg2
S'SR:C19-MG:G06B{Quad:H2}Fld-SP'
p1141
sbsg49
g42
(g43
g44
F1.4771939431185623
tRp1142
(dp1143
g47
I01
sg2
S'SR:C19-MG:G06B{Quad:H2}Fld-I'
p1144
sbsg53
VQH2G6C19B
p1145
sg55
VQH2G6C19B
p1146
sg57
g58
sg2
VQH2G6C19B.value
p1147
sg60
(lp1148
S'SR:C19-MG:G06B{Quad:H2}Fld-I'
p1149
asg63
Nsg64
VC19
p1150
sg66
F0.44800000000000001
sg67
F521.43200000000002
sg68
F521.88
sba(iaphla.gui.TunerUtils.knob
Knob
p1151
(dp1152
g21
VA
sg22
g23
sg24
I2178
sg25
(lp1153
VQUAD
p1154
aVC20
p1155
aVG2
p1156
aVA
asg30
VQUAD
p1157
sg32
Nsg33
I0
sg34
S''
sg35
(lp1158
S'SR:C20-MG:G02A{Quad:H2}Fld-SP'
p1159
asg38
F0
sg39
VG2
p1160
sg41
g42
(g43
g44
F1.4776499999999999
tRp1161
(dp1162
g47
I01
sg2
S'SR:C20-MG:G02A{Quad:H2}Fld-SP'
p1163
sbsg49
g42
(g43
g44
F1.4780098241783015
tRp1164
(dp1165
g47
I01
sg2
S'SR:C20-MG:G02A{Quad:H2}Fld-I'
p1166
sbsg53
VQH2G2C20A
p1167
sg55
VQH2G2C20A
p1168
sg57
g58
sg2
VQH2G2C20A.value
p1169
sg60
(lp1170
S'SR:C20-MG:G02A{Quad:H2}Fld-I'
p1171
asg63
Nsg64
VC20
p1172
sg66
F0.44800000000000001
sg67
F534.06399999999996
sg68
F534.51199999999994
sba(iaphla.gui.TunerUtils.knob
Knob
p1173
(dp1174
g21
VB
sg22
g23
sg24
I2359
sg25
(lp1175
VQUAD
p1176
aVC21
p1177
aVG6
p1178
aVB
asg30
VQUAD
p1179
sg32
Nsg33
I0
sg34
S''
sg35
(lp1180
S'SR:C21-MG:G06B{Quad:H2}Fld-SP'
p1181
asg38
F0
sg39
VG6
p1182
sg41
g42
(g43
g44
F1.4776499999999999
tRp1183
(dp1184
g47
I01
sg2
S'SR:C21-MG:G06B{Quad:H2}Fld-SP'
p1185
sbsg49
g42
(g43
g44
F1.4771196716742963
tRp1186
(dp1187
g47
I01
sg2
S'SR:C21-MG:G06B{Quad:H2}Fld-I'
p1188
sbsg53
VQH2G6C21B
p1189
sg55
VQH2G6C21B
p1190
sg57
g58
sg2
VQH2G6C21B.value
p1191
sg60
(lp1192
S'SR:C21-MG:G06B{Quad:H2}Fld-I'
p1193
asg63
Nsg64
VC21
p1194
sg66
F0.44800000000000001
sg67
F574.22900000000004
sg68
F574.67700000000002
sba(iaphla.gui.TunerUtils.knob
Knob
p1195
(dp1196
g21
VA
sg22
g23
sg24
I2394
sg25
(lp1197
VQUAD
p1198
aVC22
p1199
aVG2
p1200
aVA
asg30
VQUAD
p1201
sg32
Nsg33
I0
sg34
S''
sg35
(lp1202
S'SR:C22-MG:G02A{Quad:H2}Fld-SP'
p1203
asg38
F0
sg39
VG2
p1204
sg41
g42
(g43
g44
F1.4776499999999999
tRp1205
(dp1206
g47
I01
sg2
S'SR:C22-MG:G02A{Quad:H2}Fld-SP'
p1207
sbsg49
g42
(g43
g44
F1.4779332077946896
tRp1208
(dp1209
g47
I01
sg2
S'SR:C22-MG:G02A{Quad:H2}Fld-I'
p1210
sbsg53
VQH2G2C22A
p1211
sg55
VQH2G2C22A
p1212
sg57
g58
sg2
VQH2G2C22A.value
p1213
sg60
(lp1214
S'SR:C22-MG:G02A{Quad:H2}Fld-I'
p1215
asg63
Nsg64
VC22
p1216
sg66
F0.44800000000000001
sg67
F586.86099999999999
sg68
F587.30899999999997
sba(iaphla.gui.TunerUtils.knob
Knob
p1217
(dp1218
g21
VB
sg22
g23
sg24
I2575
sg25
(lp1219
VQUAD
p1220
aVC23
p1221
aVG6
p1222
aVB
asg30
VQUAD
p1223
sg32
Nsg33
I0
sg34
S''
sg35
(lp1224
S'SR:C23-MG:G06B{Quad:H2}Fld-SP'
p1225
asg38
F0
sg39
VG6
p1226
sg41
g42
(g43
g44
F1.4776499999999999
tRp1227
(dp1228
g47
I01
sg2
S'SR:C23-MG:G06B{Quad:H2}Fld-SP'
p1229
sbsg49
g42
(g43
g44
F1.4782788383257037
tRp1230
(dp1231
g47
I01
sg2
S'SR:C23-MG:G06B{Quad:H2}Fld-I'
p1232
sbsg53
VQH2G6C23B
p1233
sg55
VQH2G6C23B
p1234
sg57
g58
sg2
VQH2G6C23B.value
p1235
sg60
(lp1236
S'SR:C23-MG:G06B{Quad:H2}Fld-I'
p1237
asg63
Nsg64
VC23
p1238
sg66
F0.44800000000000001
sg67
F627.02600000000007
sg68
F627.47400000000005
sba(iaphla.gui.TunerUtils.knob
Knob
p1239
(dp1240
g21
VA
sg22
g23
sg24
I2610
sg25
(lp1241
VQUAD
p1242
aVC24
p1243
aVG2
p1244
aVA
asg30
VQUAD
p1245
sg32
Nsg33
I0
sg34
S''
sg35
(lp1246
S'SR:C24-MG:G02A{Quad:H2}Fld-SP'
p1247
asg38
F0
sg39
VG2
p1248
sg41
g42
(g43
g44
F1.4776499999999999
tRp1249
(dp1250
g47
I01
sg2
S'SR:C24-MG:G02A{Quad:H2}Fld-SP'
p1251
sbsg49
g42
(g43
g44
F1.4775445340981919
tRp1252
(dp1253
g47
I01
sg2
S'SR:C24-MG:G02A{Quad:H2}Fld-I'
p1254
sbsg53
VQH2G2C24A
p1255
sg55
VQH2G2C24A
p1256
sg57
g58
sg2
VQH2G2C24A.value
p1257
sg60
(lp1258
S'SR:C24-MG:G02A{Quad:H2}Fld-I'
p1259
asg63
Nsg64
VC24
p1260
sg66
F0.44800000000000001
sg67
F639.65800000000002
sg68
F640.10599999999999
sba(iaphla.gui.TunerUtils.knob
Knob
p1261
(dp1262
g21
VB
sg22
g23
sg24
I2791
sg25
(lp1263
VQUAD
p1264
aVC25
p1265
aVG6
p1266
aVB
asg30
VQUAD
p1267
sg32
Nsg33
I0
sg34
S''
sg35
(lp1268
S'SR:C25-MG:G06B{Quad:H2}Fld-SP'
p1269
asg38
F0
sg39
VG6
p1270
sg41
g42
(g43
g44
F1.4776499999999999
tRp1271
(dp1272
g47
I01
sg2
S'SR:C25-MG:G06B{Quad:H2}Fld-SP'
p1273
sbsg49
g42
(g43
g44
F1.4779267817589836
tRp1274
(dp1275
g47
I01
sg2
S'SR:C25-MG:G06B{Quad:H2}Fld-I'
p1276
sbsg53
VQH2G6C25B
p1277
sg55
VQH2G6C25B
p1278
sg57
g58
sg2
VQH2G6C25B.value
p1279
sg60
(lp1280
S'SR:C25-MG:G06B{Quad:H2}Fld-I'
p1281
asg63
Nsg64
VC25
p1282
sg66
F0.44800000000000001
sg67
F679.82400000000007
sg68
F680.27200000000005
sba(iaphla.gui.TunerUtils.knob
Knob
p1283
(dp1284
g21
VA
sg22
g23
sg24
I2826
sg25
(lp1285
VQUAD
p1286
aVC26
p1287
aVG2
p1288
aVA
asg30
VQUAD
p1289
sg32
Nsg33
I0
sg34
S''
sg35
(lp1290
S'SR:C26-MG:G02A{Quad:H2}Fld-SP'
p1291
asg38
F0
sg39
VG2
p1292
sg41
g42
(g43
g44
F1.4776499999999999
tRp1293
(dp1294
g47
I01
sg2
S'SR:C26-MG:G02A{Quad:H2}Fld-SP'
p1295
sbsg49
g42
(g43
g44
F1.4773661834229801
tRp1296
(dp1297
g47
I01
sg2
S'SR:C26-MG:G02A{Quad:H2}Fld-I'
p1298
sbsg53
VQH2G2C26A
p1299
sg55
VQH2G2C26A
p1300
sg57
g58
sg2
VQH2G2C26A.value
p1301
sg60
(lp1302
S'SR:C26-MG:G02A{Quad:H2}Fld-I'
p1303
asg63
Nsg64
VC26
p1304
sg66
F0.44800000000000001
sg67
F692.45600000000002
sg68
F692.904
sba(iaphla.gui.TunerUtils.knob
Knob
p1305
(dp1306
g21
VB
sg22
g23
sg24
I3007
sg25
(lp1307
VQUAD
p1308
aVC27
p1309
aVG6
p1310
aVB
asg30
VQUAD
p1311
sg32
Nsg33
I0
sg34
S''
sg35
(lp1312
S'SR:C27-MG:G06B{Quad:H2}Fld-SP'
p1313
asg38
F0
sg39
VG6
p1314
sg41
g42
(g43
g44
F1.4776499999999999
tRp1315
(dp1316
g47
I01
sg2
S'SR:C27-MG:G06B{Quad:H2}Fld-SP'
p1317
sbsg49
g42
(g43
g44
F1.4778211242034791
tRp1318
(dp1319
g47
I01
sg2
S'SR:C27-MG:G06B{Quad:H2}Fld-I'
p1320
sbsg53
VQH2G6C27B
p1321
sg55
VQH2G6C27B
p1322
sg57
g58
sg2
VQH2G6C27B.value
p1323
sg60
(lp1324
S'SR:C27-MG:G06B{Quad:H2}Fld-I'
p1325
asg63
Nsg64
VC27
p1326
sg66
F0.44800000000000001
sg67
F732.62099999999998
sg68
F733.06899999999996
sba(iaphla.gui.TunerUtils.knob
Knob
p1327
(dp1328
g21
VA
sg22
g23
sg24
I3042
sg25
(lp1329
VQUAD
p1330
aVC28
p1331
aVG2
p1332
aVA
asg30
VQUAD
p1333
sg32
Nsg33
I0
sg34
S''
sg35
(lp1334
S'SR:C28-MG:G02A{Quad:H2}Fld-SP'
p1335
asg38
F0
sg39
VG2
p1336
sg41
g42
(g43
g44
F1.4776499999999999
tRp1337
(dp1338
g47
I01
sg2
S'SR:C28-MG:G02A{Quad:H2}Fld-SP'
p1339
sbsg49
g42
(g43
g44
F1.4773433202643624
tRp1340
(dp1341
g47
I01
sg2
S'SR:C28-MG:G02A{Quad:H2}Fld-I'
p1342
sbsg53
VQH2G2C28A
p1343
sg55
VQH2G2C28A
p1344
sg57
g58
sg2
VQH2G2C28A.value
p1345
sg60
(lp1346
S'SR:C28-MG:G02A{Quad:H2}Fld-I'
p1347
asg63
Nsg64
VC28
p1348
sg66
F0.44800000000000001
sg67
F745.25300000000004
sg68
F745.70100000000002
sba(iaphla.gui.TunerUtils.knob
Knob
p1349
(dp1350
g21
VB
sg22
g23
sg24
I3227
sg25
(lp1351
VQUAD
p1352
aVC29
p1353
aVG6
p1354
aVB
asg30
VQUAD
p1355
sg32
Nsg33
I0
sg34
S''
sg35
(lp1356
S'SR:C29-MG:G06B{Quad:H2}Fld-SP'
p1357
asg38
F0
sg39
VG6
p1358
sg41
g42
(g43
g44
F1.4776499999999999
tRp1359
(dp1360
g47
I01
sg2
S'SR:C29-MG:G06B{Quad:H2}Fld-SP'
p1361
sbsg49
g42
(g43
g44
F1.4771170787125198
tRp1362
(dp1363
g47
I01
sg2
S'SR:C29-MG:G06B{Quad:H2}Fld-I'
p1364
sbsg53
VQH2G6C29B
p1365
sg55
VQH2G6C29B
p1366
sg57
g58
sg2
VQH2G6C29B.value
p1367
sg60
(lp1368
S'SR:C29-MG:G06B{Quad:H2}Fld-I'
p1369
asg63
Nsg64
VC29
p1370
sg66
F0.44800000000000001
sg67
F785.41800000000001
sg68
F785.86599999999999
sbasg2
S'QH2'
p1371
sg707
F0
sba(iaphla.gui.TunerUtils.knob
KnobGroup
p1372
(dp1373
g17
(lp1374
(iaphla.gui.TunerUtils.knob
Knob
p1375
(dp1376
g21
VA
sg22
g23
sg24
I22
sg25
(lp1377
VQUAD
p1378
aVC30
p1379
aVG2
p1380
aVA
asg30
VQUAD
p1381
sg32
Nsg33
I0
sg34
S''
sg35
(lp1382
S'SR:C30-MG:G02A{Quad:H3}Fld-SP'
p1383
asg38
F0
sg39
VG2
p1384
sg41
g42
(g43
g44
F-1.7075499999999999
tRp1385
(dp1386
g47
I01
sg2
S'SR:C30-MG:G02A{Quad:H3}Fld-SP'
p1387
sbsg49
g42
(g43
g44
F-1.7072044123075454
tRp1388
(dp1389
g47
I01
sg2
S'SR:C30-MG:G02A{Quad:H3}Fld-I'
p1390
sbsg53
VQH3G2C30A
p1391
sg55
VQH3G2C30A
p1392
sg57
g58
sg2
VQH3G2C30A.value
p1393
sg60
(lp1394
S'SR:C30-MG:G02A{Quad:H3}Fld-I'
p1395
asg63
Nsg64
VC30
p1396
sg66
F0.27500000000000002
sg67
F7.1124999999999998
sg68
F7.3875000000000002
sba(iaphla.gui.TunerUtils.knob
Knob
p1397
(dp1398
g21
VB
sg22
g23
sg24
I195
sg25
(lp1399
VQUAD
p1400
aVC01
p1401
aVG6
p1402
aVB
asg30
VQUAD
p1403
sg32
Nsg33
I0
sg34
S''
sg35
(lp1404
S'SR:C01-MG:G06B{Quad:H3}Fld-SP'
p1405
asg38
F0
sg39
VG6
p1406
sg41
g42
(g43
g44
F-1.7075499999999999
tRp1407
(dp1408
g47
I01
sg2
S'SR:C01-MG:G06B{Quad:H3}Fld-SP'
p1409
sbsg49
g42
(g43
g44
F-1.7079907946459905
tRp1410
(dp1411
g47
I01
sg2
S'SR:C01-MG:G06B{Quad:H3}Fld-I'
p1412
sbsg53
VQH3G6C01B
p1413
sg55
VQH3G6C01B
p1414
sg57
g58
sg2
VQH3G6C01B.value
p1415
sg60
(lp1416
S'SR:C01-MG:G06B{Quad:H3}Fld-I'
p1417
asg63
Nsg64
VC01
p1418
sg66
F0.27500000000000002
sg67
F45.409700000000001
sg68
F45.684699999999999
sba(iaphla.gui.TunerUtils.knob
Knob
p1419
(dp1420
g21
VA
sg22
g23
sg24
I238
sg25
(lp1421
VQUAD
p1422
aVC02
p1423
aVG2
p1424
aVA
asg30
VQUAD
p1425
sg32
Nsg33
I0
sg34
S''
sg35
(lp1426
S'SR:C02-MG:G02A{Quad:H3}Fld-SP'
p1427
asg38
F0
sg39
VG2
p1428
sg41
g42
(g43
g44
F-1.7075499999999999
tRp1429
(dp1430
g47
I01
sg2
S'SR:C02-MG:G02A{Quad:H3}Fld-SP'
p1431
sbsg49
g42
(g43
g44
F-1.7075223420412757
tRp1432
(dp1433
g47
I01
sg2
S'SR:C02-MG:G02A{Quad:H3}Fld-I'
p1434
sbsg53
VQH3G2C02A
p1435
sg55
VQH3G2C02A
p1436
sg57
g58
sg2
VQH3G2C02A.value
p1437
sg60
(lp1438
S'SR:C02-MG:G02A{Quad:H3}Fld-I'
p1439
asg63
Nsg64
VC02
p1440
sg66
F0.27500000000000002
sg67
F59.909700000000001
sg68
F60.184699999999999
sba(iaphla.gui.TunerUtils.knob
Knob
p1441
(dp1442
g21
VB
sg22
g23
sg24
I411
sg25
(lp1443
VQUAD
p1444
aVC03
p1445
aVG6
p1446
aVB
asg30
VQUAD
p1447
sg32
Nsg33
I0
sg34
S''
sg35
(lp1448
S'SR:C03-MG:G06B{Quad:H3}Fld-SP'
p1449
asg38
F0
sg39
VG6
p1450
sg41
g42
(g43
g44
F-1.7075499999999999
tRp1451
(dp1452
g47
I01
sg2
S'SR:C03-MG:G06B{Quad:H3}Fld-SP'
p1453
sbsg49
g42
(g43
g44
F-1.7069994854631112
tRp1454
(dp1455
g47
I01
sg2
S'SR:C03-MG:G06B{Quad:H3}Fld-I'
p1456
sbsg53
VQH3G6C03B
p1457
sg55
VQH3G6C03B
p1458
sg57
g58
sg2
VQH3G6C03B.value
p1459
sg60
(lp1460
S'SR:C03-MG:G06B{Quad:H3}Fld-I'
p1461
asg63
Nsg64
VC03
p1462
sg66
F0.27500000000000002
sg67
F98.20689999999999
sg68
F98.481899999999996
sba(iaphla.gui.TunerUtils.knob
Knob
p1463
(dp1464
g21
VA
sg22
g23
sg24
I454
sg25
(lp1465
VQUAD
p1466
aVC04
p1467
aVG2
p1468
aVA
asg30
VQUAD
p1469
sg32
Nsg33
I0
sg34
S''
sg35
(lp1470
S'SR:C04-MG:G02A{Quad:H3}Fld-SP'
p1471
asg38
F0
sg39
VG2
p1472
sg41
g42
(g43
g44
F-1.7075499999999999
tRp1473
(dp1474
g47
I01
sg2
S'SR:C04-MG:G02A{Quad:H3}Fld-SP'
p1475
sbsg49
g42
(g43
g44
F-1.7072828916025786
tRp1476
(dp1477
g47
I01
sg2
S'SR:C04-MG:G02A{Quad:H3}Fld-I'
p1478
sbsg53
VQH3G2C04A
p1479
sg55
VQH3G2C04A
p1480
sg57
g58
sg2
VQH3G2C04A.value
p1481
sg60
(lp1482
S'SR:C04-MG:G02A{Quad:H3}Fld-I'
p1483
asg63
Nsg64
VC04
p1484
sg66
F0.27500000000000002
sg67
F112.70699999999999
sg68
F112.982
sba(iaphla.gui.TunerUtils.knob
Knob
p1485
(dp1486
g21
VB
sg22
g23
sg24
I627
sg25
(lp1487
VQUAD
p1488
aVC05
p1489
aVG6
p1490
aVB
asg30
VQUAD
p1491
sg32
Nsg33
I0
sg34
S''
sg35
(lp1492
S'SR:C05-MG:G06B{Quad:H3}Fld-SP'
p1493
asg38
F0
sg39
VG6
p1494
sg41
g42
(g43
g44
F-1.7075499999999999
tRp1495
(dp1496
g47
I01
sg2
S'SR:C05-MG:G06B{Quad:H3}Fld-SP'
p1497
sbsg49
g42
(g43
g44
F-1.7067264754852367
tRp1498
(dp1499
g47
I01
sg2
S'SR:C05-MG:G06B{Quad:H3}Fld-I'
p1500
sbsg53
VQH3G6C05B
p1501
sg55
VQH3G6C05B
p1502
sg57
g58
sg2
VQH3G6C05B.value
p1503
sg60
(lp1504
S'SR:C05-MG:G06B{Quad:H3}Fld-I'
p1505
asg63
Nsg64
VC05
p1506
sg66
F0.27500000000000002
sg67
F151.00399999999999
sg68
F151.279
sba(iaphla.gui.TunerUtils.knob
Knob
p1507
(dp1508
g21
VA
sg22
g23
sg24
I670
sg25
(lp1509
VQUAD
p1510
aVC06
p1511
aVG2
p1512
aVA
asg30
VQUAD
p1513
sg32
Nsg33
I0
sg34
S''
sg35
(lp1514
S'SR:C06-MG:G02A{Quad:H3}Fld-SP'
p1515
asg38
F0
sg39
VG2
p1516
sg41
g42
(g43
g44
F-1.7075499999999999
tRp1517
(dp1518
g47
I01
sg2
S'SR:C06-MG:G02A{Quad:H3}Fld-SP'
p1519
sbsg49
g42
(g43
g44
F-1.7077033759529257
tRp1520
(dp1521
g47
I01
sg2
S'SR:C06-MG:G02A{Quad:H3}Fld-I'
p1522
sbsg53
VQH3G2C06A
p1523
sg55
VQH3G2C06A
p1524
sg57
g58
sg2
VQH3G2C06A.value
p1525
sg60
(lp1526
S'SR:C06-MG:G02A{Quad:H3}Fld-I'
p1527
asg63
Nsg64
VC06
p1528
sg66
F0.27500000000000002
sg67
F165.50399999999999
sg68
F165.779
sba(iaphla.gui.TunerUtils.knob
Knob
p1529
(dp1530
g21
VB
sg22
g23
sg24
I843
sg25
(lp1531
VQUAD
p1532
aVC07
p1533
aVG6
p1534
aVB
asg30
VQUAD
p1535
sg32
Nsg33
I0
sg34
S''
sg35
(lp1536
S'SR:C07-MG:G06B{Quad:H3}Fld-SP'
p1537
asg38
F0
sg39
VG6
p1538
sg41
g42
(g43
g44
F-1.7075499999999999
tRp1539
(dp1540
g47
I01
sg2
S'SR:C07-MG:G06B{Quad:H3}Fld-SP'
p1541
sbsg49
g42
(g43
g44
F-1.7083757392359042
tRp1542
(dp1543
g47
I01
sg2
S'SR:C07-MG:G06B{Quad:H3}Fld-I'
p1544
sbsg53
VQH3G6C07B
p1545
sg55
VQH3G6C07B
p1546
sg57
g58
sg2
VQH3G6C07B.value
p1547
sg60
(lp1548
S'SR:C07-MG:G06B{Quad:H3}Fld-I'
p1549
asg63
Nsg64
VC07
p1550
sg66
F0.27500000000000002
sg67
F203.80099999999999
sg68
F204.07599999999999
sba(iaphla.gui.TunerUtils.knob
Knob
p1551
(dp1552
g21
VA
sg22
g23
sg24
I886
sg25
(lp1553
VQUAD
p1554
aVC08
p1555
aVG2
p1556
aVA
asg30
VQUAD
p1557
sg32
Nsg33
I0
sg34
S''
sg35
(lp1558
S'SR:C08-MG:G02A{Quad:H3}Fld-SP'
p1559
asg38
F0
sg39
VG2
p1560
sg41
g42
(g43
g44
F-1.7075499999999999
tRp1561
(dp1562
g47
I01
sg2
S'SR:C08-MG:G02A{Quad:H3}Fld-SP'
p1563
sbsg49
g42
(g43
g44
F-1.7069861710807199
tRp1564
(dp1565
g47
I01
sg2
S'SR:C08-MG:G02A{Quad:H3}Fld-I'
p1566
sbsg53
VQH3G2C08A
p1567
sg55
VQH3G2C08A
p1568
sg57
g58
sg2
VQH3G2C08A.value
p1569
sg60
(lp1570
S'SR:C08-MG:G02A{Quad:H3}Fld-I'
p1571
asg63
Nsg64
VC08
p1572
sg66
F0.27500000000000002
sg67
F218.30099999999999
sg68
F218.57599999999999
sba(iaphla.gui.TunerUtils.knob
Knob
p1573
(dp1574
g21
VB
sg22
g23
sg24
I1059
sg25
(lp1575
VQUAD
p1576
aVC09
p1577
aVG6
p1578
aVB
asg30
VQUAD
p1579
sg32
Nsg33
I0
sg34
S''
sg35
(lp1580
S'SR:C09-MG:G06B{Quad:H3}Fld-SP'
p1581
asg38
F0
sg39
VG6
p1582
sg41
g42
(g43
g44
F-1.7075499999999999
tRp1583
(dp1584
g47
I01
sg2
S'SR:C09-MG:G06B{Quad:H3}Fld-SP'
p1585
sbsg49
g42
(g43
g44
F-1.7072547776718545
tRp1586
(dp1587
g47
I01
sg2
S'SR:C09-MG:G06B{Quad:H3}Fld-I'
p1588
sbsg53
VQH3G6C09B
p1589
sg55
VQH3G6C09B
p1590
sg57
g58
sg2
VQH3G6C09B.value
p1591
sg60
(lp1592
S'SR:C09-MG:G06B{Quad:H3}Fld-I'
p1593
asg63
Nsg64
VC09
p1594
sg66
F0.27500000000000002
sg67
F256.59800000000001
sg68
F256.87299999999999
sba(iaphla.gui.TunerUtils.knob
Knob
p1595
(dp1596
g21
VA
sg22
g23
sg24
I1102
sg25
(lp1597
VQUAD
p1598
aVC10
p1599
aVG2
p1600
aVA
asg30
VQUAD
p1601
sg32
Nsg33
I0
sg34
S''
sg35
(lp1602
S'SR:C10-MG:G02A{Quad:H3}Fld-SP'
p1603
asg38
F0
sg39
VG2
p1604
sg41
g42
(g43
g44
F-1.7075499999999999
tRp1605
(dp1606
g47
I01
sg2
S'SR:C10-MG:G02A{Quad:H3}Fld-SP'
p1607
sbsg49
g42
(g43
g44
F-1.7082162532581826
tRp1608
(dp1609
g47
I01
sg2
S'SR:C10-MG:G02A{Quad:H3}Fld-I'
p1610
sbsg53
VQH3G2C10A
p1611
sg55
VQH3G2C10A
p1612
sg57
g58
sg2
VQH3G2C10A.value
p1613
sg60
(lp1614
S'SR:C10-MG:G02A{Quad:H3}Fld-I'
p1615
asg63
Nsg64
VC10
p1616
sg66
F0.27500000000000002
sg67
F271.09800000000001
sg68
F271.37299999999999
sba(iaphla.gui.TunerUtils.knob
Knob
p1617
(dp1618
g21
VB
sg22
g23
sg24
I1275
sg25
(lp1619
VQUAD
p1620
aVC11
p1621
aVG6
p1622
aVB
asg30
VQUAD
p1623
sg32
Nsg33
I0
sg34
S''
sg35
(lp1624
S'SR:C11-MG:G06B{Quad:H3}Fld-SP'
p1625
asg38
F0
sg39
VG6
p1626
sg41
g42
(g43
g44
F-1.7075499999999999
tRp1627
(dp1628
g47
I01
sg2
S'SR:C11-MG:G06B{Quad:H3}Fld-SP'
p1629
sbsg49
g42
(g43
g44
F-1.7083562496898603
tRp1630
(dp1631
g47
I01
sg2
S'SR:C11-MG:G06B{Quad:H3}Fld-I'
p1632
sbsg53
VQH3G6C11B
p1633
sg55
VQH3G6C11B
p1634
sg57
g58
sg2
VQH3G6C11B.value
p1635
sg60
(lp1636
S'SR:C11-MG:G06B{Quad:H3}Fld-I'
p1637
asg63
Nsg64
VC11
p1638
sg66
F0.27500000000000002
sg67
F309.39600000000002
sg68
F309.67099999999999
sba(iaphla.gui.TunerUtils.knob
Knob
p1639
(dp1640
g21
VA
sg22
g23
sg24
I1318
sg25
(lp1641
VQUAD
p1642
aVC12
p1643
aVG2
p1644
aVA
asg30
VQUAD
p1645
sg32
Nsg33
I0
sg34
S''
sg35
(lp1646
S'SR:C12-MG:G02A{Quad:H3}Fld-SP'
p1647
asg38
F0
sg39
VG2
p1648
sg41
g42
(g43
g44
F-1.7075499999999999
tRp1649
(dp1650
g47
I01
sg2
S'SR:C12-MG:G02A{Quad:H3}Fld-SP'
p1651
sbsg49
g42
(g43
g44
F-1.7067678256317234
tRp1652
(dp1653
g47
I01
sg2
S'SR:C12-MG:G02A{Quad:H3}Fld-I'
p1654
sbsg53
VQH3G2C12A
p1655
sg55
VQH3G2C12A
p1656
sg57
g58
sg2
VQH3G2C12A.value
p1657
sg60
(lp1658
S'SR:C12-MG:G02A{Quad:H3}Fld-I'
p1659
asg63
Nsg64
VC12
p1660
sg66
F0.27500000000000002
sg67
F323.89600000000002
sg68
F324.17099999999999
sba(iaphla.gui.TunerUtils.knob
Knob
p1661
(dp1662
g21
VB
sg22
g23
sg24
I1491
sg25
(lp1663
VQUAD
p1664
aVC13
p1665
aVG6
p1666
aVB
asg30
VQUAD
p1667
sg32
Nsg33
I0
sg34
S''
sg35
(lp1668
S'SR:C13-MG:G06B{Quad:H3}Fld-SP'
p1669
asg38
F0
sg39
VG6
p1670
sg41
g42
(g43
g44
F-1.7075499999999999
tRp1671
(dp1672
g47
I01
sg2
S'SR:C13-MG:G06B{Quad:H3}Fld-SP'
p1673
sbsg49
g42
(g43
g44
F-1.7077880825226979
tRp1674
(dp1675
g47
I01
sg2
S'SR:C13-MG:G06B{Quad:H3}Fld-I'
p1676
sbsg53
VQH3G6C13B
p1677
sg55
VQH3G6C13B
p1678
sg57
g58
sg2
VQH3G6C13B.value
p1679
sg60
(lp1680
S'SR:C13-MG:G06B{Quad:H3}Fld-I'
p1681
asg63
Nsg64
VC13
p1682
sg66
F0.27500000000000002
sg67
F362.19300000000004
sg68
F362.46800000000002
sba(iaphla.gui.TunerUtils.knob
Knob
p1683
(dp1684
g21
VA
sg22
g23
sg24
I1534
sg25
(lp1685
VQUAD
p1686
aVC14
p1687
aVG2
p1688
aVA
asg30
VQUAD
p1689
sg32
Nsg33
I0
sg34
S''
sg35
(lp1690
S'SR:C14-MG:G02A{Quad:H3}Fld-SP'
p1691
asg38
F0
sg39
VG2
p1692
sg41
g42
(g43
g44
F-1.7075499999999999
tRp1693
(dp1694
g47
I01
sg2
S'SR:C14-MG:G02A{Quad:H3}Fld-SP'
p1695
sbsg49
g42
(g43
g44
F-1.7067397377565423
tRp1696
(dp1697
g47
I01
sg2
S'SR:C14-MG:G02A{Quad:H3}Fld-I'
p1698
sbsg53
VQH3G2C14A
p1699
sg55
VQH3G2C14A
p1700
sg57
g58
sg2
VQH3G2C14A.value
p1701
sg60
(lp1702
S'SR:C14-MG:G02A{Quad:H3}Fld-I'
p1703
asg63
Nsg64
VC14
p1704
sg66
F0.27500000000000002
sg67
F376.69300000000004
sg68
F376.96800000000002
sba(iaphla.gui.TunerUtils.knob
Knob
p1705
(dp1706
g21
VB
sg22
g23
sg24
I1707
sg25
(lp1707
VQUAD
p1708
aVC15
p1709
aVG6
p1710
aVB
asg30
VQUAD
p1711
sg32
Nsg33
I0
sg34
S''
sg35
(lp1712
S'SR:C15-MG:G06B{Quad:H3}Fld-SP'
p1713
asg38
F0
sg39
VG6
p1714
sg41
g42
(g43
g44
F-1.7075499999999999
tRp1715
(dp1716
g47
I01
sg2
S'SR:C15-MG:G06B{Quad:H3}Fld-SP'
p1717
sbsg49
g42
(g43
g44
F-1.7083551032459756
tRp1718
(dp1719
g47
I01
sg2
S'SR:C15-MG:G06B{Quad:H3}Fld-I'
p1720
sbsg53
VQH3G6C15B
p1721
sg55
VQH3G6C15B
p1722
sg57
g58
sg2
VQH3G6C15B.value
p1723
sg60
(lp1724
S'SR:C15-MG:G06B{Quad:H3}Fld-I'
p1725
asg63
Nsg64
VC15
p1726
sg66
F0.27500000000000002
sg67
F414.99000000000001
sg68
F415.26499999999999
sba(iaphla.gui.TunerUtils.knob
Knob
p1727
(dp1728
g21
VA
sg22
g23
sg24
I1750
sg25
(lp1729
VQUAD
p1730
aVC16
p1731
aVG2
p1732
aVA
asg30
VQUAD
p1733
sg32
Nsg33
I0
sg34
S''
sg35
(lp1734
S'SR:C16-MG:G02A{Quad:H3}Fld-SP'
p1735
asg38
F0
sg39
VG2
p1736
sg41
g42
(g43
g44
F-1.7075499999999999
tRp1737
(dp1738
g47
I01
sg2
S'SR:C16-MG:G02A{Quad:H3}Fld-SP'
p1739
sbsg49
g42
(g43
g44
F-1.7083621121869994
tRp1740
(dp1741
g47
I01
sg2
S'SR:C16-MG:G02A{Quad:H3}Fld-I'
p1742
sbsg53
VQH3G2C16A
p1743
sg55
VQH3G2C16A
p1744
sg57
g58
sg2
VQH3G2C16A.value
p1745
sg60
(lp1746
S'SR:C16-MG:G02A{Quad:H3}Fld-I'
p1747
asg63
Nsg64
VC16
p1748
sg66
F0.27500000000000002
sg67
F429.49000000000001
sg68
F429.76499999999999
sba(iaphla.gui.TunerUtils.knob
Knob
p1749
(dp1750
g21
VB
sg22
g23
sg24
I1923
sg25
(lp1751
VQUAD
p1752
aVC17
p1753
aVG6
p1754
aVB
asg30
VQUAD
p1755
sg32
Nsg33
I0
sg34
S''
sg35
(lp1756
S'SR:C17-MG:G06B{Quad:H3}Fld-SP'
p1757
asg38
F0
sg39
VG6
p1758
sg41
g42
(g43
g44
F-1.7075499999999999
tRp1759
(dp1760
g47
I01
sg2
S'SR:C17-MG:G06B{Quad:H3}Fld-SP'
p1761
sbsg49
g42
(g43
g44
F-1.7078194533962769
tRp1762
(dp1763
g47
I01
sg2
S'SR:C17-MG:G06B{Quad:H3}Fld-I'
p1764
sbsg53
VQH3G6C17B
p1765
sg55
VQH3G6C17B
p1766
sg57
g58
sg2
VQH3G6C17B.value
p1767
sg60
(lp1768
S'SR:C17-MG:G06B{Quad:H3}Fld-I'
p1769
asg63
Nsg64
VC17
p1770
sg66
F0.27500000000000002
sg67
F467.78700000000003
sg68
F468.06200000000001
sba(iaphla.gui.TunerUtils.knob
Knob
p1771
(dp1772
g21
VA
sg22
g23
sg24
I1966
sg25
(lp1773
VQUAD
p1774
aVC18
p1775
aVG2
p1776
aVA
asg30
VQUAD
p1777
sg32
Nsg33
I0
sg34
S''
sg35
(lp1778
S'SR:C18-MG:G02A{Quad:H3}Fld-SP'
p1779
asg38
F0
sg39
VG2
p1780
sg41
g42
(g43
g44
F-1.7075499999999999
tRp1781
(dp1782
g47
I01
sg2
S'SR:C18-MG:G02A{Quad:H3}Fld-SP'
p1783
sbsg49
g42
(g43
g44
F-1.7073560034557869
tRp1784
(dp1785
g47
I01
sg2
S'SR:C18-MG:G02A{Quad:H3}Fld-I'
p1786
sbsg53
VQH3G2C18A
p1787
sg55
VQH3G2C18A
p1788
sg57
g58
sg2
VQH3G2C18A.value
p1789
sg60
(lp1790
S'SR:C18-MG:G02A{Quad:H3}Fld-I'
p1791
asg63
Nsg64
VC18
p1792
sg66
F0.27500000000000002
sg67
F482.28700000000003
sg68
F482.56200000000001
sba(iaphla.gui.TunerUtils.knob
Knob
p1793
(dp1794
g21
VB
sg22
g23
sg24
I2139
sg25
(lp1795
VQUAD
p1796
aVC19
p1797
aVG6
p1798
aVB
asg30
VQUAD
p1799
sg32
Nsg33
I0
sg34
S''
sg35
(lp1800
S'SR:C19-MG:G06B{Quad:H3}Fld-SP'
p1801
asg38
F0
sg39
VG6
p1802
sg41
g42
(g43
g44
F-1.7075499999999999
tRp1803
(dp1804
g47
I01
sg2
S'SR:C19-MG:G06B{Quad:H3}Fld-SP'
p1805
sbsg49
g42
(g43
g44
F-1.7076519162558172
tRp1806
(dp1807
g47
I01
sg2
S'SR:C19-MG:G06B{Quad:H3}Fld-I'
p1808
sbsg53
VQH3G6C19B
p1809
sg55
VQH3G6C19B
p1810
sg57
g58
sg2
VQH3G6C19B.value
p1811
sg60
(lp1812
S'SR:C19-MG:G06B{Quad:H3}Fld-I'
p1813
asg63
Nsg64
VC19
p1814
sg66
F0.27500000000000002
sg67
F520.58400000000006
sg68
F520.85900000000004
sba(iaphla.gui.TunerUtils.knob
Knob
p1815
(dp1816
g21
VA
sg22
g23
sg24
I2182
sg25
(lp1817
VQUAD
p1818
aVC20
p1819
aVG2
p1820
aVA
asg30
VQUAD
p1821
sg32
Nsg33
I0
sg34
S''
sg35
(lp1822
S'SR:C20-MG:G02A{Quad:H3}Fld-SP'
p1823
asg38
F0
sg39
VG2
p1824
sg41
g42
(g43
g44
F-1.7075499999999999
tRp1825
(dp1826
g47
I01
sg2
S'SR:C20-MG:G02A{Quad:H3}Fld-SP'
p1827
sbsg49
g42
(g43
g44
F-1.7079536654974441
tRp1828
(dp1829
g47
I01
sg2
S'SR:C20-MG:G02A{Quad:H3}Fld-I'
p1830
sbsg53
VQH3G2C20A
p1831
sg55
VQH3G2C20A
p1832
sg57
g58
sg2
VQH3G2C20A.value
p1833
sg60
(lp1834
S'SR:C20-MG:G02A{Quad:H3}Fld-I'
p1835
asg63
Nsg64
VC20
p1836
sg66
F0.27500000000000002
sg67
F535.08500000000004
sg68
F535.36000000000001
sba(iaphla.gui.TunerUtils.knob
Knob
p1837
(dp1838
g21
VB
sg22
g23
sg24
I2355
sg25
(lp1839
VQUAD
p1840
aVC21
p1841
aVG6
p1842
aVB
asg30
VQUAD
p1843
sg32
Nsg33
I0
sg34
S''
sg35
(lp1844
S'SR:C21-MG:G06B{Quad:H3}Fld-SP'
p1845
asg38
F0
sg39
VG6
p1846
sg41
g42
(g43
g44
F-1.7075499999999999
tRp1847
(dp1848
g47
I01
sg2
S'SR:C21-MG:G06B{Quad:H3}Fld-SP'
p1849
sbsg49
g42
(g43
g44
F-1.7081226356927595
tRp1850
(dp1851
g47
I01
sg2
S'SR:C21-MG:G06B{Quad:H3}Fld-I'
p1852
sbsg53
VQH3G6C21B
p1853
sg55
VQH3G6C21B
p1854
sg57
g58
sg2
VQH3G6C21B.value
p1855
sg60
(lp1856
S'SR:C21-MG:G06B{Quad:H3}Fld-I'
p1857
asg63
Nsg64
VC21
p1858
sg66
F0.27500000000000002
sg67
F573.38200000000006
sg68
F573.65700000000004
sba(iaphla.gui.TunerUtils.knob
Knob
p1859
(dp1860
g21
VA
sg22
g23
sg24
I2398
sg25
(lp1861
VQUAD
p1862
aVC22
p1863
aVG2
p1864
aVA
asg30
VQUAD
p1865
sg32
Nsg33
I0
sg34
S''
sg35
(lp1866
S'SR:C22-MG:G02A{Quad:H3}Fld-SP'
p1867
asg38
F0
sg39
VG2
p1868
sg41
g42
(g43
g44
F-1.7075499999999999
tRp1869
(dp1870
g47
I01
sg2
S'SR:C22-MG:G02A{Quad:H3}Fld-SP'
p1871
sbsg49
g42
(g43
g44
F-1.7068900261276416
tRp1872
(dp1873
g47
I01
sg2
S'SR:C22-MG:G02A{Quad:H3}Fld-I'
p1874
sbsg53
VQH3G2C22A
p1875
sg55
VQH3G2C22A
p1876
sg57
g58
sg2
VQH3G2C22A.value
p1877
sg60
(lp1878
S'SR:C22-MG:G02A{Quad:H3}Fld-I'
p1879
asg63
Nsg64
VC22
p1880
sg66
F0.27500000000000002
sg67
F587.88200000000006
sg68
F588.15700000000004
sba(iaphla.gui.TunerUtils.knob
Knob
p1881
(dp1882
g21
VB
sg22
g23
sg24
I2571
sg25
(lp1883
VQUAD
p1884
aVC23
p1885
aVG6
p1886
aVB
asg30
VQUAD
p1887
sg32
Nsg33
I0
sg34
S''
sg35
(lp1888
S'SR:C23-MG:G06B{Quad:H3}Fld-SP'
p1889
asg38
F0
sg39
VG6
p1890
sg41
g42
(g43
g44
F-1.7075499999999999
tRp1891
(dp1892
g47
I01
sg2
S'SR:C23-MG:G06B{Quad:H3}Fld-SP'
p1893
sbsg49
g42
(g43
g44
F-1.7068069871126115
tRp1894
(dp1895
g47
I01
sg2
S'SR:C23-MG:G06B{Quad:H3}Fld-I'
p1896
sbsg53
VQH3G6C23B
p1897
sg55
VQH3G6C23B
p1898
sg57
g58
sg2
VQH3G6C23B.value
p1899
sg60
(lp1900
S'SR:C23-MG:G06B{Quad:H3}Fld-I'
p1901
asg63
Nsg64
VC23
p1902
sg66
F0.27500000000000002
sg67
F626.17899999999997
sg68
F626.45399999999995
sba(iaphla.gui.TunerUtils.knob
Knob
p1903
(dp1904
g21
VA
sg22
g23
sg24
I2614
sg25
(lp1905
VQUAD
p1906
aVC24
p1907
aVG2
p1908
aVA
asg30
VQUAD
p1909
sg32
Nsg33
I0
sg34
S''
sg35
(lp1910
S'SR:C24-MG:G02A{Quad:H3}Fld-SP'
p1911
asg38
F0
sg39
VG2
p1912
sg41
g42
(g43
g44
F-1.7075499999999999
tRp1913
(dp1914
g47
I01
sg2
S'SR:C24-MG:G02A{Quad:H3}Fld-SP'
p1915
sbsg49
g42
(g43
g44
F-1.7081305305222401
tRp1916
(dp1917
g47
I01
sg2
S'SR:C24-MG:G02A{Quad:H3}Fld-I'
p1918
sbsg53
VQH3G2C24A
p1919
sg55
VQH3G2C24A
p1920
sg57
g58
sg2
VQH3G2C24A.value
p1921
sg60
(lp1922
S'SR:C24-MG:G02A{Quad:H3}Fld-I'
p1923
asg63
Nsg64
VC24
p1924
sg66
F0.27500000000000002
sg67
F640.67899999999997
sg68
F640.95399999999995
sba(iaphla.gui.TunerUtils.knob
Knob
p1925
(dp1926
g21
VB
sg22
g23
sg24
I2787
sg25
(lp1927
VQUAD
p1928
aVC25
p1929
aVG6
p1930
aVB
asg30
VQUAD
p1931
sg32
Nsg33
I0
sg34
S''
sg35
(lp1932
S'SR:C25-MG:G06B{Quad:H3}Fld-SP'
p1933
asg38
F0
sg39
VG6
p1934
sg41
g42
(g43
g44
F-1.7075499999999999
tRp1935
(dp1936
g47
I01
sg2
S'SR:C25-MG:G06B{Quad:H3}Fld-SP'
p1937
sbsg49
g42
(g43
g44
F-1.7073369047428855
tRp1938
(dp1939
g47
I01
sg2
S'SR:C25-MG:G06B{Quad:H3}Fld-I'
p1940
sbsg53
VQH3G6C25B
p1941
sg55
VQH3G6C25B
p1942
sg57
g58
sg2
VQH3G6C25B.value
p1943
sg60
(lp1944
S'SR:C25-MG:G06B{Quad:H3}Fld-I'
p1945
asg63
Nsg64
VC25
p1946
sg66
F0.27500000000000002
sg67
F678.976
sg68
F679.25099999999998
sba(iaphla.gui.TunerUtils.knob
Knob
p1947
(dp1948
g21
VA
sg22
g23
sg24
I2830
sg25
(lp1949
VQUAD
p1950
aVC26
p1951
aVG2
p1952
aVA
asg30
VQUAD
p1953
sg32
Nsg33
I0
sg34
S''
sg35
(lp1954
S'SR:C26-MG:G02A{Quad:H3}Fld-SP'
p1955
asg38
F0
sg39
VG2
p1956
sg41
g42
(g43
g44
F-1.7075499999999999
tRp1957
(dp1958
g47
I01
sg2
S'SR:C26-MG:G02A{Quad:H3}Fld-SP'
p1959
sbsg49
g42
(g43
g44
F-1.7068626156965743
tRp1960
(dp1961
g47
I01
sg2
S'SR:C26-MG:G02A{Quad:H3}Fld-I'
p1962
sbsg53
VQH3G2C26A
p1963
sg55
VQH3G2C26A
p1964
sg57
g58
sg2
VQH3G2C26A.value
p1965
sg60
(lp1966
S'SR:C26-MG:G02A{Quad:H3}Fld-I'
p1967
asg63
Nsg64
VC26
p1968
sg66
F0.27500000000000002
sg67
F693.476
sg68
F693.75099999999998
sba(iaphla.gui.TunerUtils.knob
Knob
p1969
(dp1970
g21
VB
sg22
g23
sg24
I3003
sg25
(lp1971
VQUAD
p1972
aVC27
p1973
aVG6
p1974
aVB
asg30
VQUAD
p1975
sg32
Nsg33
I0
sg34
S''
sg35
(lp1976
S'SR:C27-MG:G06B{Quad:H3}Fld-SP'
p1977
asg38
F0
sg39
VG6
p1978
sg41
g42
(g43
g44
F-1.7075499999999999
tRp1979
(dp1980
g47
I01
sg2
S'SR:C27-MG:G06B{Quad:H3}Fld-SP'
p1981
sbsg49
g42
(g43
g44
F-1.7076612962512399
tRp1982
(dp1983
g47
I01
sg2
S'SR:C27-MG:G06B{Quad:H3}Fld-I'
p1984
sbsg53
VQH3G6C27B
p1985
sg55
VQH3G6C27B
p1986
sg57
g58
sg2
VQH3G6C27B.value
p1987
sg60
(lp1988
S'SR:C27-MG:G06B{Quad:H3}Fld-I'
p1989
asg63
Nsg64
VC27
p1990
sg66
F0.27500000000000002
sg67
F731.77300000000002
sg68
F732.048
sba(iaphla.gui.TunerUtils.knob
Knob
p1991
(dp1992
g21
VA
sg22
g23
sg24
I3046
sg25
(lp1993
VQUAD
p1994
aVC28
p1995
aVG2
p1996
aVA
asg30
VQUAD
p1997
sg32
Nsg33
I0
sg34
S''
sg35
(lp1998
S'SR:C28-MG:G02A{Quad:H3}Fld-SP'
p1999
asg38
F0
sg39
VG2
p2000
sg41
g42
(g43
g44
F-1.7075499999999999
tRp2001
(dp2002
g47
I01
sg2
S'SR:C28-MG:G02A{Quad:H3}Fld-SP'
p2003
sbsg49
g42
(g43
g44
F-1.7076387060955975
tRp2004
(dp2005
g47
I01
sg2
S'SR:C28-MG:G02A{Quad:H3}Fld-I'
p2006
sbsg53
VQH3G2C28A
p2007
sg55
VQH3G2C28A
p2008
sg57
g58
sg2
VQH3G2C28A.value
p2009
sg60
(lp2010
S'SR:C28-MG:G02A{Quad:H3}Fld-I'
p2011
asg63
Nsg64
VC28
p2012
sg66
F0.27500000000000002
sg67
F746.27300000000002
sg68
F746.548
sba(iaphla.gui.TunerUtils.knob
Knob
p2013
(dp2014
g21
VB
sg22
g23
sg24
I3223
sg25
(lp2015
VQUAD
p2016
aVC29
p2017
aVG6
p2018
aVB
asg30
VQUAD
p2019
sg32
Nsg33
I0
sg34
S''
sg35
(lp2020
S'SR:C29-MG:G06B{Quad:H3}Fld-SP'
p2021
asg38
F0
sg39
VG6
p2022
sg41
g42
(g43
g44
F-1.7075499999999999
tRp2023
(dp2024
g47
I01
sg2
S'SR:C29-MG:G06B{Quad:H3}Fld-SP'
p2025
sbsg49
g42
(g43
g44
F-1.7075916497852293
tRp2026
(dp2027
g47
I01
sg2
S'SR:C29-MG:G06B{Quad:H3}Fld-I'
p2028
sbsg53
VQH3G6C29B
p2029
sg55
VQH3G6C29B
p2030
sg57
g58
sg2
VQH3G6C29B.value
p2031
sg60
(lp2032
S'SR:C29-MG:G06B{Quad:H3}Fld-I'
p2033
asg63
Nsg64
VC29
p2034
sg66
F0.27500000000000002
sg67
F784.57100000000003
sg68
F784.846
sbasg2
S'QH3'
p2035
sg707
F0
sbasS'refStepSize'
p2036
F0.001
sS'weight_list'
p2037
(lp2038
F1
aF0
aF0
asS'ref_index'
p2039
I0
sS'normalized_weight_list'
p2040
(lp2041
F1
aF0
aF0
asS'step_size_list'
p2042
(lp2043
F0.001
aF0
aF0
asbsS'preferences'
p2044
(dp2045
g7
F1333033895.0670969
sg5
g6
sS'TunerGUI'
p2046
(dp2047
S'visible_column_name_list'
p2048
(lp2049
S'Group Name'
p2050
aS'Knob Name'
p2051
aS'Reading'
p2052
aS'Setpoint'
p2053
aS'Weight'
p2054
aS'Step Size'
p2055
aS'Start Read'
p2056
aS'Start Setp'
p2057
asss.