(dp1
S'name'
p2
S'QH'
p3
sS'config_description'
p4
S''
sS'version'
p5
S'0.1.0'
p6
sS'time_stamp'
p7
F1333033910.9915819
sS'data'
p8
(iaphla.gui.TunerUtils.knob
KnobGroupList
p9
(dp10
S'refKnobGroupName'
p11
S'QH3'
p12
sS'knobGroups'
p13
(lp14
(iaphla.gui.TunerUtils.knob
KnobGroup
p15
(dp16
S'knobs'
p17
(lp18
(iaphla.gui.TunerUtils.knob
Knob
p19
(dp20
S'symmetry'
p21
VA
sS'sequence'
p22
(I0
I0
tp23
sS'index'
p24
I12
sS'group'
p25
(lp26
VQUAD
p27
aVC30
p28
aVG2
p29
aVA
asS'family'
p30
VQUAD
p31
sS'pvrb_val_time_stamp'
p32
NsS'virtual'
p33
I0
sS'pv_unit'
p34
S''
sS'pvsp'
p35
(lp36
S'SR:C30-MG:G02A{Quad:H1}Fld-SP'
p37
asS'phylen'
p38
F0
sS'girder'
p39
VG2
p40
sS'pvsp_val'
p41
ccopy_reg
_reconstructor
p42
(ccothread.dbr
ca_float
p43
c__builtin__
float
p44
F-0.63300400000000001
tRp45
(dp46
S'ok'
p47
I01
sg2
S'SR:C30-MG:G02A{Quad:H1}Fld-SP'
p48
sbsS'pvrb_val'
p49
g42
(g43
g44
F-0.63271026431461053
tRp50
(dp51
g47
I01
sg2
S'SR:C30-MG:G02A{Quad:H1}Fld-I'
p52
sbsS'devname'
p53
VQH1G2C30A
p54
sS'elem_name'
p55
VQH1G2C30A
p56
sS'field_name'
p57
S'value'
p58
sg2
VQH1G2C30A.value
p59
sS'pvrb'
p60
(lp61
S'SR:C30-MG:G02A{Quad:H1}Fld-I'
p62
asS'pvsp_val_time_stamp'
p63
NsS'cell'
p64
VC30
p65
sS'length'
p66
F0.27500000000000002
sS'sb'
p67
F5.0124999999999993
sS'se'
p68
F5.2874999999999996
sba(iaphla.gui.TunerUtils.knob
Knob
p69
(dp70
g21
VB
sg22
g23
sg24
I205
sg25
(lp71
VQUAD
p72
aVC01
p73
aVG6
p74
aVB
asg30
VQUAD
p75
sg32
Nsg33
I0
sg34
S''
sg35
(lp76
S'SR:C01-MG:G06B{Quad:H1}Fld-SP'
p77
asg38
F0
sg39
VG6
p78
sg41
g42
(g43
g44
F-0.63300400000000001
tRp79
(dp80
g47
I01
sg2
S'SR:C01-MG:G06B{Quad:H1}Fld-SP'
p81
sbsg49
g42
(g43
g44
F-0.63303506824393085
tRp82
(dp83
g47
I01
sg2
S'SR:C01-MG:G06B{Quad:H1}Fld-I'
p84
sbsg53
VQH1G6C01B
p85
sg55
VQH1G6C01B
p86
sg57
g58
sg2
VQH1G6C01B.value
p87
sg60
(lp88
S'SR:C01-MG:G06B{Quad:H1}Fld-I'
p89
asg63
Nsg64
VC01
p90
sg66
F0.27500000000000002
sg67
F47.509700000000002
sg68
F47.784700000000001
sba(iaphla.gui.TunerUtils.knob
Knob
p91
(dp92
g21
VA
sg22
g23
sg24
I228
sg25
(lp93
VQUAD
p94
aVC02
p95
aVG2
p96
aVA
asg30
VQUAD
p97
sg32
Nsg33
I0
sg34
S''
sg35
(lp98
S'SR:C02-MG:G02A{Quad:H1}Fld-SP'
p99
asg38
F0
sg39
VG2
p100
sg41
g42
(g43
g44
F-0.63300400000000001
tRp101
(dp102
g47
I01
sg2
S'SR:C02-MG:G02A{Quad:H1}Fld-SP'
p103
sbsg49
g42
(g43
g44
F-0.63270626547954534
tRp104
(dp105
g47
I01
sg2
S'SR:C02-MG:G02A{Quad:H1}Fld-I'
p106
sbsg53
VQH1G2C02A
p107
sg55
VQH1G2C02A
p108
sg57
g58
sg2
VQH1G2C02A.value
p109
sg60
(lp110
S'SR:C02-MG:G02A{Quad:H1}Fld-I'
p111
asg63
Nsg64
VC02
p112
sg66
F0.27500000000000002
sg67
F57.809699999999999
sg68
F58.084699999999998
sba(iaphla.gui.TunerUtils.knob
Knob
p113
(dp114
g21
VB
sg22
g23
sg24
I421
sg25
(lp115
VQUAD
p116
aVC03
p117
aVG6
p118
aVB
asg30
VQUAD
p119
sg32
Nsg33
I0
sg34
S''
sg35
(lp120
S'SR:C03-MG:G06B{Quad:H1}Fld-SP'
p121
asg38
F0
sg39
VG6
p122
sg41
g42
(g43
g44
F-0.63300400000000001
tRp123
(dp124
g47
I01
sg2
S'SR:C03-MG:G06B{Quad:H1}Fld-SP'
p125
sbsg49
g42
(g43
g44
F-0.63283889350920886
tRp126
(dp127
g47
I01
sg2
S'SR:C03-MG:G06B{Quad:H1}Fld-I'
p128
sbsg53
VQH1G6C03B
p129
sg55
VQH1G6C03B
p130
sg57
g58
sg2
VQH1G6C03B.value
p131
sg60
(lp132
S'SR:C03-MG:G06B{Quad:H1}Fld-I'
p133
asg63
Nsg64
VC03
p134
sg66
F0.27500000000000002
sg67
F100.30699999999999
sg68
F100.58199999999999
sba(iaphla.gui.TunerUtils.knob
Knob
p135
(dp136
g21
VA
sg22
g23
sg24
I444
sg25
(lp137
VQUAD
p138
aVC04
p139
aVG2
p140
aVA
asg30
VQUAD
p141
sg32
Nsg33
I0
sg34
S''
sg35
(lp142
S'SR:C04-MG:G02A{Quad:H1}Fld-SP'
p143
asg38
F0
sg39
VG2
p144
sg41
g42
(g43
g44
F-0.63300400000000001
tRp145
(dp146
g47
I01
sg2
S'SR:C04-MG:G02A{Quad:H1}Fld-SP'
p147
sbsg49
g42
(g43
g44
F-0.6333048350664835
tRp148
(dp149
g47
I01
sg2
S'SR:C04-MG:G02A{Quad:H1}Fld-I'
p150
sbsg53
VQH1G2C04A
p151
sg55
VQH1G2C04A
p152
sg57
g58
sg2
VQH1G2C04A.value
p153
sg60
(lp154
S'SR:C04-MG:G02A{Quad:H1}Fld-I'
p155
asg63
Nsg64
VC04
p156
sg66
F0.27500000000000002
sg67
F110.607
sg68
F110.88200000000001
sba(iaphla.gui.TunerUtils.knob
Knob
p157
(dp158
g21
VB
sg22
g23
sg24
I637
sg25
(lp159
VQUAD
p160
aVC05
p161
aVG6
p162
aVB
asg30
VQUAD
p163
sg32
Nsg33
I0
sg34
S''
sg35
(lp164
S'SR:C05-MG:G06B{Quad:H1}Fld-SP'
p165
asg38
F0
sg39
VG6
p166
sg41
g42
(g43
g44
F-0.63300400000000001
tRp167
(dp168
g47
I01
sg2
S'SR:C05-MG:G06B{Quad:H1}Fld-SP'
p169
sbsg49
g42
(g43
g44
F-0.63328670508238349
tRp170
(dp171
g47
I01
sg2
S'SR:C05-MG:G06B{Quad:H1}Fld-I'
p172
sbsg53
VQH1G6C05B
p173
sg55
VQH1G6C05B
p174
sg57
g58
sg2
VQH1G6C05B.value
p175
sg60
(lp176
S'SR:C05-MG:G06B{Quad:H1}Fld-I'
p177
asg63
Nsg64
VC05
p178
sg66
F0.27500000000000002
sg67
F153.10399999999998
sg68
F153.37899999999999
sba(iaphla.gui.TunerUtils.knob
Knob
p179
(dp180
g21
VA
sg22
g23
sg24
I660
sg25
(lp181
VQUAD
p182
aVC06
p183
aVG2
p184
aVA
asg30
VQUAD
p185
sg32
Nsg33
I0
sg34
S''
sg35
(lp186
S'SR:C06-MG:G02A{Quad:H1}Fld-SP'
p187
asg38
F0
sg39
VG2
p188
sg41
g42
(g43
g44
F-0.63300400000000001
tRp189
(dp190
g47
I01
sg2
S'SR:C06-MG:G02A{Quad:H1}Fld-SP'
p191
sbsg49
g42
(g43
g44
F-0.63289500276740673
tRp192
(dp193
g47
I01
sg2
S'SR:C06-MG:G02A{Quad:H1}Fld-I'
p194
sbsg53
VQH1G2C06A
p195
sg55
VQH1G2C06A
p196
sg57
g58
sg2
VQH1G2C06A.value
p197
sg60
(lp198
S'SR:C06-MG:G02A{Quad:H1}Fld-I'
p199
asg63
Nsg64
VC06
p200
sg66
F0.27500000000000002
sg67
F163.404
sg68
F163.679
sba(iaphla.gui.TunerUtils.knob
Knob
p201
(dp202
g21
VB
sg22
g23
sg24
I853
sg25
(lp203
VQUAD
p204
aVC07
p205
aVG6
p206
aVB
asg30
VQUAD
p207
sg32
Nsg33
I0
sg34
S''
sg35
(lp208
S'SR:C07-MG:G06B{Quad:H1}Fld-SP'
p209
asg38
F0
sg39
VG6
p210
sg41
g42
(g43
g44
F-0.63300400000000001
tRp211
(dp212
g47
I01
sg2
S'SR:C07-MG:G06B{Quad:H1}Fld-SP'
p213
sbsg49
g42
(g43
g44
F-0.63308898490415799
tRp214
(dp215
g47
I01
sg2
S'SR:C07-MG:G06B{Quad:H1}Fld-I'
p216
sbsg53
VQH1G6C07B
p217
sg55
VQH1G6C07B
p218
sg57
g58
sg2
VQH1G6C07B.value
p219
sg60
(lp220
S'SR:C07-MG:G06B{Quad:H1}Fld-I'
p221
asg63
Nsg64
VC07
p222
sg66
F0.27500000000000002
sg67
F205.90099999999998
sg68
F206.17599999999999
sba(iaphla.gui.TunerUtils.knob
Knob
p223
(dp224
g21
VA
sg22
g23
sg24
I876
sg25
(lp225
VQUAD
p226
aVC08
p227
aVG2
p228
aVA
asg30
VQUAD
p229
sg32
Nsg33
I0
sg34
S''
sg35
(lp230
S'SR:C08-MG:G02A{Quad:H1}Fld-SP'
p231
asg38
F0
sg39
VG2
p232
sg41
g42
(g43
g44
F-0.63300400000000001
tRp233
(dp234
g47
I01
sg2
S'SR:C08-MG:G02A{Quad:H1}Fld-SP'
p235
sbsg49
g42
(g43
g44
F-0.6327440322551614
tRp236
(dp237
g47
I01
sg2
S'SR:C08-MG:G02A{Quad:H1}Fld-I'
p238
sbsg53
VQH1G2C08A
p239
sg55
VQH1G2C08A
p240
sg57
g58
sg2
VQH1G2C08A.value
p241
sg60
(lp242
S'SR:C08-MG:G02A{Quad:H1}Fld-I'
p243
asg63
Nsg64
VC08
p244
sg66
F0.27500000000000002
sg67
F216.20099999999999
sg68
F216.476
sba(iaphla.gui.TunerUtils.knob
Knob
p245
(dp246
g21
VB
sg22
g23
sg24
I1069
sg25
(lp247
VQUAD
p248
aVC09
p249
aVG6
p250
aVB
asg30
VQUAD
p251
sg32
Nsg33
I0
sg34
S''
sg35
(lp252
S'SR:C09-MG:G06B{Quad:H1}Fld-SP'
p253
asg38
F0
sg39
VG6
p254
sg41
g42
(g43
g44
F-0.63300400000000001
tRp255
(dp256
g47
I01
sg2
S'SR:C09-MG:G06B{Quad:H1}Fld-SP'
p257
sbsg49
g42
(g43
g44
F-0.63300361846863507
tRp258
(dp259
g47
I01
sg2
S'SR:C09-MG:G06B{Quad:H1}Fld-I'
p260
sbsg53
VQH1G6C09B
p261
sg55
VQH1G6C09B
p262
sg57
g58
sg2
VQH1G6C09B.value
p263
sg60
(lp264
S'SR:C09-MG:G06B{Quad:H1}Fld-I'
p265
asg63
Nsg64
VC09
p266
sg66
F0.27500000000000002
sg67
F258.69800000000004
sg68
F258.97300000000001
sba(iaphla.gui.TunerUtils.knob
Knob
p267
(dp268
g21
VA
sg22
g23
sg24
I1092
sg25
(lp269
VQUAD
p270
aVC10
p271
aVG2
p272
aVA
asg30
VQUAD
p273
sg32
Nsg33
I0
sg34
S''
sg35
(lp274
S'SR:C10-MG:G02A{Quad:H1}Fld-SP'
p275
asg38
F0
sg39
VG2
p276
sg41
g42
(g43
g44
F-0.63300400000000001
tRp277
(dp278
g47
I01
sg2
S'SR:C10-MG:G02A{Quad:H1}Fld-SP'
p279
sbsg49
g42
(g43
g44
F-0.63327846593670567
tRp280
(dp281
g47
I01
sg2
S'SR:C10-MG:G02A{Quad:H1}Fld-I'
p282
sbsg53
VQH1G2C10A
p283
sg55
VQH1G2C10A
p284
sg57
g58
sg2
VQH1G2C10A.value
p285
sg60
(lp286
S'SR:C10-MG:G02A{Quad:H1}Fld-I'
p287
asg63
Nsg64
VC10
p288
sg66
F0.27500000000000002
sg67
F268.99800000000005
sg68
F269.27300000000002
sba(iaphla.gui.TunerUtils.knob
Knob
p289
(dp290
g21
VB
sg22
g23
sg24
I1285
sg25
(lp291
VQUAD
p292
aVC11
p293
aVG6
p294
aVB
asg30
VQUAD
p295
sg32
Nsg33
I0
sg34
S''
sg35
(lp296
S'SR:C11-MG:G06B{Quad:H1}Fld-SP'
p297
asg38
F0
sg39
VG6
p298
sg41
g42
(g43
g44
F-0.63300400000000001
tRp299
(dp300
g47
I01
sg2
S'SR:C11-MG:G06B{Quad:H1}Fld-SP'
p301
sbsg49
g42
(g43
g44
F-0.63306646006509504
tRp302
(dp303
g47
I01
sg2
S'SR:C11-MG:G06B{Quad:H1}Fld-I'
p304
sbsg53
VQH1G6C11B
p305
sg55
VQH1G6C11B
p306
sg57
g58
sg2
VQH1G6C11B.value
p307
sg60
(lp308
S'SR:C11-MG:G06B{Quad:H1}Fld-I'
p309
asg63
Nsg64
VC11
p310
sg66
F0.27500000000000002
sg67
F311.49600000000004
sg68
F311.77100000000002
sba(iaphla.gui.TunerUtils.knob
Knob
p311
(dp312
g21
VA
sg22
g23
sg24
I1308
sg25
(lp313
VQUAD
p314
aVC12
p315
aVG2
p316
aVA
asg30
VQUAD
p317
sg32
Nsg33
I0
sg34
S''
sg35
(lp318
S'SR:C12-MG:G02A{Quad:H1}Fld-SP'
p319
asg38
F0
sg39
VG2
p320
sg41
g42
(g43
g44
F-0.63300400000000001
tRp321
(dp322
g47
I01
sg2
S'SR:C12-MG:G02A{Quad:H1}Fld-SP'
p323
sbsg49
g42
(g43
g44
F-0.63289722434267037
tRp324
(dp325
g47
I01
sg2
S'SR:C12-MG:G02A{Quad:H1}Fld-I'
p326
sbsg53
VQH1G2C12A
p327
sg55
VQH1G2C12A
p328
sg57
g58
sg2
VQH1G2C12A.value
p329
sg60
(lp330
S'SR:C12-MG:G02A{Quad:H1}Fld-I'
p331
asg63
Nsg64
VC12
p332
sg66
F0.27500000000000002
sg67
F321.79600000000005
sg68
F322.07100000000003
sba(iaphla.gui.TunerUtils.knob
Knob
p333
(dp334
g21
VB
sg22
g23
sg24
I1501
sg25
(lp335
VQUAD
p336
aVC13
p337
aVG6
p338
aVB
asg30
VQUAD
p339
sg32
Nsg33
I0
sg34
S''
sg35
(lp340
S'SR:C13-MG:G06B{Quad:H1}Fld-SP'
p341
asg38
F0
sg39
VG6
p342
sg41
g42
(g43
g44
F-0.63300400000000001
tRp343
(dp344
g47
I01
sg2
S'SR:C13-MG:G06B{Quad:H1}Fld-SP'
p345
sbsg49
g42
(g43
g44
F-0.63298696631488516
tRp346
(dp347
g47
I01
sg2
S'SR:C13-MG:G06B{Quad:H1}Fld-I'
p348
sbsg53
VQH1G6C13B
p349
sg55
VQH1G6C13B
p350
sg57
g58
sg2
VQH1G6C13B.value
p351
sg60
(lp352
S'SR:C13-MG:G06B{Quad:H1}Fld-I'
p353
asg63
Nsg64
VC13
p354
sg66
F0.27500000000000002
sg67
F364.29300000000001
sg68
F364.56799999999998
sba(iaphla.gui.TunerUtils.knob
Knob
p355
(dp356
g21
VA
sg22
g23
sg24
I1524
sg25
(lp357
VQUAD
p358
aVC14
p359
aVG2
p360
aVA
asg30
VQUAD
p361
sg32
Nsg33
I0
sg34
S''
sg35
(lp362
S'SR:C14-MG:G02A{Quad:H1}Fld-SP'
p363
asg38
F0
sg39
VG2
p364
sg41
g42
(g43
g44
F-0.63300400000000001
tRp365
(dp366
g47
I01
sg2
S'SR:C14-MG:G02A{Quad:H1}Fld-SP'
p367
sbsg49
g42
(g43
g44
F-0.63311484210577551
tRp368
(dp369
g47
I01
sg2
S'SR:C14-MG:G02A{Quad:H1}Fld-I'
p370
sbsg53
VQH1G2C14A
p371
sg55
VQH1G2C14A
p372
sg57
g58
sg2
VQH1G2C14A.value
p373
sg60
(lp374
S'SR:C14-MG:G02A{Quad:H1}Fld-I'
p375
asg63
Nsg64
VC14
p376
sg66
F0.27500000000000002
sg67
F374.59300000000002
sg68
F374.86799999999999
sba(iaphla.gui.TunerUtils.knob
Knob
p377
(dp378
g21
VB
sg22
g23
sg24
I1717
sg25
(lp379
VQUAD
p380
aVC15
p381
aVG6
p382
aVB
asg30
VQUAD
p383
sg32
Nsg33
I0
sg34
S''
sg35
(lp384
S'SR:C15-MG:G06B{Quad:H1}Fld-SP'
p385
asg38
F0
sg39
VG6
p386
sg41
g42
(g43
g44
F-0.63300400000000001
tRp387
(dp388
g47
I01
sg2
S'SR:C15-MG:G06B{Quad:H1}Fld-SP'
p389
sbsg49
g42
(g43
g44
F-0.63317684336733049
tRp390
(dp391
g47
I01
sg2
S'SR:C15-MG:G06B{Quad:H1}Fld-I'
p392
sbsg53
VQH1G6C15B
p393
sg55
VQH1G6C15B
p394
sg57
g58
sg2
VQH1G6C15B.value
p395
sg60
(lp396
S'SR:C15-MG:G06B{Quad:H1}Fld-I'
p397
asg63
Nsg64
VC15
p398
sg66
F0.27500000000000002
sg67
F417.09000000000003
sg68
F417.36500000000001
sba(iaphla.gui.TunerUtils.knob
Knob
p399
(dp400
g21
VA
sg22
g23
sg24
I1740
sg25
(lp401
VQUAD
p402
aVC16
p403
aVG2
p404
aVA
asg30
VQUAD
p405
sg32
Nsg33
I0
sg34
S''
sg35
(lp406
S'SR:C16-MG:G02A{Quad:H1}Fld-SP'
p407
asg38
F0
sg39
VG2
p408
sg41
g42
(g43
g44
F-0.63300400000000001
tRp409
(dp410
g47
I01
sg2
S'SR:C16-MG:G02A{Quad:H1}Fld-SP'
p411
sbsg49
g42
(g43
g44
F-0.63294347173928434
tRp412
(dp413
g47
I01
sg2
S'SR:C16-MG:G02A{Quad:H1}Fld-I'
p414
sbsg53
VQH1G2C16A
p415
sg55
VQH1G2C16A
p416
sg57
g58
sg2
VQH1G2C16A.value
p417
sg60
(lp418
S'SR:C16-MG:G02A{Quad:H1}Fld-I'
p419
asg63
Nsg64
VC16
p420
sg66
F0.27500000000000002
sg67
F427.39000000000004
sg68
F427.66500000000002
sba(iaphla.gui.TunerUtils.knob
Knob
p421
(dp422
g21
VB
sg22
g23
sg24
I1933
sg25
(lp423
VQUAD
p424
aVC17
p425
aVG6
p426
aVB
asg30
VQUAD
p427
sg32
Nsg33
I0
sg34
S''
sg35
(lp428
S'SR:C17-MG:G06B{Quad:H1}Fld-SP'
p429
asg38
F0
sg39
VG6
p430
sg41
g42
(g43
g44
F-0.63300400000000001
tRp431
(dp432
g47
I01
sg2
S'SR:C17-MG:G06B{Quad:H1}Fld-SP'
p433
sbsg49
g42
(g43
g44
F-0.63324663945955595
tRp434
(dp435
g47
I01
sg2
S'SR:C17-MG:G06B{Quad:H1}Fld-I'
p436
sbsg53
VQH1G6C17B
p437
sg55
VQH1G6C17B
p438
sg57
g58
sg2
VQH1G6C17B.value
p439
sg60
(lp440
S'SR:C17-MG:G06B{Quad:H1}Fld-I'
p441
asg63
Nsg64
VC17
p442
sg66
F0.27500000000000002
sg67
F469.887
sg68
F470.16199999999998
sba(iaphla.gui.TunerUtils.knob
Knob
p443
(dp444
g21
VA
sg22
g23
sg24
I1956
sg25
(lp445
VQUAD
p446
aVC18
p447
aVG2
p448
aVA
asg30
VQUAD
p449
sg32
Nsg33
I0
sg34
S''
sg35
(lp450
S'SR:C18-MG:G02A{Quad:H1}Fld-SP'
p451
asg38
F0
sg39
VG2
p452
sg41
g42
(g43
g44
F-0.63300400000000001
tRp453
(dp454
g47
I01
sg2
S'SR:C18-MG:G02A{Quad:H1}Fld-SP'
p455
sbsg49
g42
(g43
g44
F-0.63277009229623871
tRp456
(dp457
g47
I01
sg2
S'SR:C18-MG:G02A{Quad:H1}Fld-I'
p458
sbsg53
VQH1G2C18A
p459
sg55
VQH1G2C18A
p460
sg57
g58
sg2
VQH1G2C18A.value
p461
sg60
(lp462
S'SR:C18-MG:G02A{Quad:H1}Fld-I'
p463
asg63
Nsg64
VC18
p464
sg66
F0.27500000000000002
sg67
F480.18700000000001
sg68
F480.46199999999999
sba(iaphla.gui.TunerUtils.knob
Knob
p465
(dp466
g21
VB
sg22
g23
sg24
I2149
sg25
(lp467
VQUAD
p468
aVC19
p469
aVG6
p470
aVB
asg30
VQUAD
p471
sg32
Nsg33
I0
sg34
S''
sg35
(lp472
S'SR:C19-MG:G06B{Quad:H1}Fld-SP'
p473
asg38
F0
sg39
VG6
p474
sg41
g42
(g43
g44
F-0.63300400000000001
tRp475
(dp476
g47
I01
sg2
S'SR:C19-MG:G06B{Quad:H1}Fld-SP'
p477
sbsg49
g42
(g43
g44
F-0.63303439211239798
tRp478
(dp479
g47
I01
sg2
S'SR:C19-MG:G06B{Quad:H1}Fld-I'
p480
sbsg53
VQH1G6C19B
p481
sg55
VQH1G6C19B
p482
sg57
g58
sg2
VQH1G6C19B.value
p483
sg60
(lp484
S'SR:C19-MG:G06B{Quad:H1}Fld-I'
p485
asg63
Nsg64
VC19
p486
sg66
F0.27500000000000002
sg67
F522.68399999999997
sg68
F522.95899999999995
sba(iaphla.gui.TunerUtils.knob
Knob
p487
(dp488
g21
VA
sg22
g23
sg24
I2172
sg25
(lp489
VQUAD
p490
aVC20
p491
aVG2
p492
aVA
asg30
VQUAD
p493
sg32
Nsg33
I0
sg34
S''
sg35
(lp494
S'SR:C20-MG:G02A{Quad:H1}Fld-SP'
p495
asg38
F0
sg39
VG2
p496
sg41
g42
(g43
g44
F-0.63300400000000001
tRp497
(dp498
g47
I01
sg2
S'SR:C20-MG:G02A{Quad:H1}Fld-SP'
p499
sbsg49
g42
(g43
g44
F-0.63316960875992978
tRp500
(dp501
g47
I01
sg2
S'SR:C20-MG:G02A{Quad:H1}Fld-I'
p502
sbsg53
VQH1G2C20A
p503
sg55
VQH1G2C20A
p504
sg57
g58
sg2
VQH1G2C20A.value
p505
sg60
(lp506
S'SR:C20-MG:G02A{Quad:H1}Fld-I'
p507
asg63
Nsg64
VC20
p508
sg66
F0.27500000000000002
sg67
F532.98400000000004
sg68
F533.25900000000001
sba(iaphla.gui.TunerUtils.knob
Knob
p509
(dp510
g21
VB
sg22
g23
sg24
I2365
sg25
(lp511
VQUAD
p512
aVC21
p513
aVG6
p514
aVB
asg30
VQUAD
p515
sg32
Nsg33
I0
sg34
S''
sg35
(lp516
S'SR:C21-MG:G06B{Quad:H1}Fld-SP'
p517
asg38
F0
sg39
VG6
p518
sg41
g42
(g43
g44
F-0.63300400000000001
tRp519
(dp520
g47
I01
sg2
S'SR:C21-MG:G06B{Quad:H1}Fld-SP'
p521
sbsg49
g42
(g43
g44
F-0.63300126166729231
tRp522
(dp523
g47
I01
sg2
S'SR:C21-MG:G06B{Quad:H1}Fld-I'
p524
sbsg53
VQH1G6C21B
p525
sg55
VQH1G6C21B
p526
sg57
g58
sg2
VQH1G6C21B.value
p527
sg60
(lp528
S'SR:C21-MG:G06B{Quad:H1}Fld-I'
p529
asg63
Nsg64
VC21
p530
sg66
F0.27500000000000002
sg67
F575.48199999999997
sg68
F575.75699999999995
sba(iaphla.gui.TunerUtils.knob
Knob
p531
(dp532
g21
VA
sg22
g23
sg24
I2388
sg25
(lp533
VQUAD
p534
aVC22
p535
aVG2
p536
aVA
asg30
VQUAD
p537
sg32
Nsg33
I0
sg34
S''
sg35
(lp538
S'SR:C22-MG:G02A{Quad:H1}Fld-SP'
p539
asg38
F0
sg39
VG2
p540
sg41
g42
(g43
g44
F-0.63300400000000001
tRp541
(dp542
g47
I01
sg2
S'SR:C22-MG:G02A{Quad:H1}Fld-SP'
p543
sbsg49
g42
(g43
g44
F-0.63308493777398334
tRp544
(dp545
g47
I01
sg2
S'SR:C22-MG:G02A{Quad:H1}Fld-I'
p546
sbsg53
VQH1G2C22A
p547
sg55
VQH1G2C22A
p548
sg57
g58
sg2
VQH1G2C22A.value
p549
sg60
(lp550
S'SR:C22-MG:G02A{Quad:H1}Fld-I'
p551
asg63
Nsg64
VC22
p552
sg66
F0.27500000000000002
sg67
F585.78200000000004
sg68
F586.05700000000002
sba(iaphla.gui.TunerUtils.knob
Knob
p553
(dp554
g21
VB
sg22
g23
sg24
I2581
sg25
(lp555
VQUAD
p556
aVC23
p557
aVG6
p558
aVB
asg30
VQUAD
p559
sg32
Nsg33
I0
sg34
S''
sg35
(lp560
S'SR:C23-MG:G06B{Quad:H1}Fld-SP'
p561
asg38
F0
sg39
VG6
p562
sg41
g42
(g43
g44
F-0.63300400000000001
tRp563
(dp564
g47
I01
sg2
S'SR:C23-MG:G06B{Quad:H1}Fld-SP'
p565
sbsg49
g42
(g43
g44
F-0.63272812384609756
tRp566
(dp567
g47
I01
sg2
S'SR:C23-MG:G06B{Quad:H1}Fld-I'
p568
sbsg53
VQH1G6C23B
p569
sg55
VQH1G6C23B
p570
sg57
g58
sg2
VQH1G6C23B.value
p571
sg60
(lp572
S'SR:C23-MG:G06B{Quad:H1}Fld-I'
p573
asg63
Nsg64
VC23
p574
sg66
F0.27500000000000002
sg67
F628.279
sg68
F628.55399999999997
sba(iaphla.gui.TunerUtils.knob
Knob
p575
(dp576
g21
VA
sg22
g23
sg24
I2604
sg25
(lp577
VQUAD
p578
aVC24
p579
aVG2
p580
aVA
asg30
VQUAD
p581
sg32
Nsg33
I0
sg34
S''
sg35
(lp582
S'SR:C24-MG:G02A{Quad:H1}Fld-SP'
p583
asg38
F0
sg39
VG2
p584
sg41
g42
(g43
g44
F-0.63300400000000001
tRp585
(dp586
g47
I01
sg2
S'SR:C24-MG:G02A{Quad:H1}Fld-SP'
p587
sbsg49
g42
(g43
g44
F-0.63307120264484629
tRp588
(dp589
g47
I01
sg2
S'SR:C24-MG:G02A{Quad:H1}Fld-I'
p590
sbsg53
VQH1G2C24A
p591
sg55
VQH1G2C24A
p592
sg57
g58
sg2
VQH1G2C24A.value
p593
sg60
(lp594
S'SR:C24-MG:G02A{Quad:H1}Fld-I'
p595
asg63
Nsg64
VC24
p596
sg66
F0.27500000000000002
sg67
F638.57900000000006
sg68
F638.85400000000004
sba(iaphla.gui.TunerUtils.knob
Knob
p597
(dp598
g21
VB
sg22
g23
sg24
I2797
sg25
(lp599
VQUAD
p600
aVC25
p601
aVG6
p602
aVB
asg30
VQUAD
p603
sg32
Nsg33
I0
sg34
S''
sg35
(lp604
S'SR:C25-MG:G06B{Quad:H1}Fld-SP'
p605
asg38
F0
sg39
VG6
p606
sg41
g42
(g43
g44
F-0.63300400000000001
tRp607
(dp608
g47
I01
sg2
S'SR:C25-MG:G06B{Quad:H1}Fld-SP'
p609
sbsg49
g42
(g43
g44
F-0.63321024426504924
tRp610
(dp611
g47
I01
sg2
S'SR:C25-MG:G06B{Quad:H1}Fld-I'
p612
sbsg53
VQH1G6C25B
p613
sg55
VQH1G6C25B
p614
sg57
g58
sg2
VQH1G6C25B.value
p615
sg60
(lp616
S'SR:C25-MG:G06B{Quad:H1}Fld-I'
p617
asg63
Nsg64
VC25
p618
sg66
F0.27500000000000002
sg67
F681.07600000000002
sg68
F681.351
sba(iaphla.gui.TunerUtils.knob
Knob
p619
(dp620
g21
VA
sg22
g23
sg24
I2820
sg25
(lp621
VQUAD
p622
aVC26
p623
aVG2
p624
aVA
asg30
VQUAD
p625
sg32
Nsg33
I0
sg34
S''
sg35
(lp626
S'SR:C26-MG:G02A{Quad:H1}Fld-SP'
p627
asg38
F0
sg39
VG2
p628
sg41
g42
(g43
g44
F-0.63300400000000001
tRp629
(dp630
g47
I01
sg2
S'SR:C26-MG:G02A{Quad:H1}Fld-SP'
p631
sbsg49
g42
(g43
g44
F-0.63284280541307691
tRp632
(dp633
g47
I01
sg2
S'SR:C26-MG:G02A{Quad:H1}Fld-I'
p634
sbsg53
VQH1G2C26A
p635
sg55
VQH1G2C26A
p636
sg57
g58
sg2
VQH1G2C26A.value
p637
sg60
(lp638
S'SR:C26-MG:G02A{Quad:H1}Fld-I'
p639
asg63
Nsg64
VC26
p640
sg66
F0.27500000000000002
sg67
F691.37599999999998
sg68
F691.65099999999995
sba(iaphla.gui.TunerUtils.knob
Knob
p641
(dp642
g21
VB
sg22
g23
sg24
I3013
sg25
(lp643
VQUAD
p644
aVC27
p645
aVG6
p646
aVB
asg30
VQUAD
p647
sg32
Nsg33
I0
sg34
S''
sg35
(lp648
S'SR:C27-MG:G06B{Quad:H1}Fld-SP'
p649
asg38
F0
sg39
VG6
p650
sg41
g42
(g43
g44
F-0.63300400000000001
tRp651
(dp652
g47
I01
sg2
S'SR:C27-MG:G06B{Quad:H1}Fld-SP'
p653
sbsg49
g42
(g43
g44
F-0.63282181635849544
tRp654
(dp655
g47
I01
sg2
S'SR:C27-MG:G06B{Quad:H1}Fld-I'
p656
sbsg53
VQH1G6C27B
p657
sg55
VQH1G6C27B
p658
sg57
g58
sg2
VQH1G6C27B.value
p659
sg60
(lp660
S'SR:C27-MG:G06B{Quad:H1}Fld-I'
p661
asg63
Nsg64
VC27
p662
sg66
F0.27500000000000002
sg67
F733.87300000000005
sg68
F734.14800000000002
sba(iaphla.gui.TunerUtils.knob
Knob
p663
(dp664
g21
VA
sg22
g23
sg24
I3036
sg25
(lp665
VQUAD
p666
aVC28
p667
aVG2
p668
aVA
asg30
VQUAD
p669
sg32
Nsg33
I0
sg34
S''
sg35
(lp670
S'SR:C28-MG:G02A{Quad:H1}Fld-SP'
p671
asg38
F0
sg39
VG2
p672
sg41
g42
(g43
g44
F-0.63300400000000001
tRp673
(dp674
g47
I01
sg2
S'SR:C28-MG:G02A{Quad:H1}Fld-SP'
p675
sbsg49
g42
(g43
g44
F-0.6332515945377889
tRp676
(dp677
g47
I01
sg2
S'SR:C28-MG:G02A{Quad:H1}Fld-I'
p678
sbsg53
VQH1G2C28A
p679
sg55
VQH1G2C28A
p680
sg57
g58
sg2
VQH1G2C28A.value
p681
sg60
(lp682
S'SR:C28-MG:G02A{Quad:H1}Fld-I'
p683
asg63
Nsg64
VC28
p684
sg66
F0.27500000000000002
sg67
F744.173
sg68
F744.44799999999998
sba(iaphla.gui.TunerUtils.knob
Knob
p685
(dp686
g21
VB
sg22
g23
sg24
I3233
sg25
(lp687
VQUAD
p688
aVC29
p689
aVG6
p690
aVB
asg30
VQUAD
p691
sg32
Nsg33
I0
sg34
S''
sg35
(lp692
S'SR:C29-MG:G06B{Quad:H1}Fld-SP'
p693
asg38
F0
sg39
VG6
p694
sg41
g42
(g43
g44
F-0.63300400000000001
tRp695
(dp696
g47
I01
sg2
S'SR:C29-MG:G06B{Quad:H1}Fld-SP'
p697
sbsg49
g42
(g43
g44
F-0.63319746537907984
tRp698
(dp699
g47
I01
sg2
S'SR:C29-MG:G06B{Quad:H1}Fld-I'
p700
sbsg53
VQH1G6C29B
p701
sg55
VQH1G6C29B
p702
sg57
g58
sg2
VQH1G6C29B.value
p703
sg60
(lp704
S'SR:C29-MG:G06B{Quad:H1}Fld-I'
p705
asg63
Nsg64
VC29
p706
sg66
F0.27500000000000002
sg67
F786.67100000000005
sg68
F786.94600000000003
sbasg2
S'QH1'
p707
sS'weight'
p708
F1
sba(iaphla.gui.TunerUtils.knob
KnobGroup
p709
(dp710
g17
(lp711
(iaphla.gui.TunerUtils.knob
Knob
p712
(dp713
g21
VA
sg22
g23
sg24
I18
sg25
(lp714
VQUAD
p715
aVC30
p716
aVG2
p717
aVA
asg30
VQUAD
p718
sg32
Nsg33
I0
sg34
S''
sg35
(lp719
S'SR:C30-MG:G02A{Quad:H2}Fld-SP'
p720
asg38
F0
sg39
VG2
p721
sg41
g42
(g43
g44
F1.4776499999999999
tRp722
(dp723
g47
I01
sg2
S'SR:C30-MG:G02A{Quad:H2}Fld-SP'
p724
sbsg49
g42
(g43
g44
F1.4773939168402379
tRp725
(dp726
g47
I01
sg2
S'SR:C30-MG:G02A{Quad:H2}Fld-I'
p727
sbsg53
VQH2G2C30A
p728
sg55
VQH2G2C30A
p729
sg57
g58
sg2
VQH2G2C30A.value
p730
sg60
(lp731
S'SR:C30-MG:G02A{Quad:H2}Fld-I'
p732
asg63
Nsg64
VC30
p733
sg66
F0.44800000000000001
sg67
F6.0919999999999996
sg68
F6.54
sba(iaphla.gui.TunerUtils.knob
Knob
p734
(dp735
g21
VB
sg22
g23
sg24
I199
sg25
(lp736
VQUAD
p737
aVC01
p738
aVG6
p739
aVB
asg30
VQUAD
p740
sg32
Nsg33
I0
sg34
S''
sg35
(lp741
S'SR:C01-MG:G06B{Quad:H2}Fld-SP'
p742
asg38
F0
sg39
VG6
p743
sg41
g42
(g43
g44
F1.4776499999999999
tRp744
(dp745
g47
I01
sg2
S'SR:C01-MG:G06B{Quad:H2}Fld-SP'
p746
sbsg49
g42
(g43
g44
F1.4769240496189058
tRp747
(dp748
g47
I01
sg2
S'SR:C01-MG:G06B{Quad:H2}Fld-I'
p749
sbsg53
VQH2G6C01B
p750
sg55
VQH2G6C01B
p751
sg57
g58
sg2
VQH2G6C01B.value
p752
sg60
(lp753
S'SR:C01-MG:G06B{Quad:H2}Fld-I'
p754
asg63
Nsg64
VC01
p755
sg66
F0.44800000000000001
sg67
F46.257199999999997
sg68
F46.705199999999998
sba(iaphla.gui.TunerUtils.knob
Knob
p756
(dp757
g21
VA
sg22
g23
sg24
I234
sg25
(lp758
VQUAD
p759
aVC02
p760
aVG2
p761
aVA
asg30
VQUAD
p762
sg32
Nsg33
I0
sg34
S''
sg35
(lp763
S'SR:C02-MG:G02A{Quad:H2}Fld-SP'
p764
asg38
F0
sg39
VG2
p765
sg41
g42
(g43
g44
F1.4776499999999999
tRp766
(dp767
g47
I01
sg2
S'SR:C02-MG:G02A{Quad:H2}Fld-SP'
p768
sbsg49
g42
(g43
g44
F1.4778606048649574
tRp769
(dp770
g47
I01
sg2
S'SR:C02-MG:G02A{Quad:H2}Fld-I'
p771
sbsg53
VQH2G2C02A
p772
sg55
VQH2G2C02A
p773
sg57
g58
sg2
VQH2G2C02A.value
p774
sg60
(lp775
S'SR:C02-MG:G02A{Quad:H2}Fld-I'
p776
asg63
Nsg64
VC02
p777
sg66
F0.44800000000000001
sg67
F58.889200000000002
sg68
F59.337200000000003
sba(iaphla.gui.TunerUtils.knob
Knob
p778
(dp779
g21
VB
sg22
g23
sg24
I415
sg25
(lp780
VQUAD
p781
aVC03
p782
aVG6
p783
aVB
asg30
VQUAD
p784
sg32
Nsg33
I0
sg34
S''
sg35
(lp785
S'SR:C03-MG:G06B{Quad:H2}Fld-SP'
p786
asg38
F0
sg39
VG6
p787
sg41
g42
(g43
g44
F1.4776499999999999
tRp788
(dp789
g47
I01
sg2
S'SR:C03-MG:G06B{Quad:H2}Fld-SP'
p790
sbsg49
g42
(g43
g44
F1.4769150757164109
tRp791
(dp792
g47
I01
sg2
S'SR:C03-MG:G06B{Quad:H2}Fld-I'
p793
sbsg53
VQH2G6C03B
p794
sg55
VQH2G6C03B
p795
sg57
g58
sg2
VQH2G6C03B.value
p796
sg60
(lp797
S'SR:C03-MG:G06B{Quad:H2}Fld-I'
p798
asg63
Nsg64
VC03
p799
sg66
F0.44800000000000001
sg67
F99.054400000000001
sg68
F99.502399999999994
sba(iaphla.gui.TunerUtils.knob
Knob
p800
(dp801
g21
VA
sg22
g23
sg24
I450
sg25
(lp802
VQUAD
p803
aVC04
p804
aVG2
p805
aVA
asg30
VQUAD
p806
sg32
Nsg33
I0
sg34
S''
sg35
(lp807
S'SR:C04-MG:G02A{Quad:H2}Fld-SP'
p808
asg38
F0
sg39
VG2
p809
sg41
g42
(g43
g44
F1.4776499999999999
tRp810
(dp811
g47
I01
sg2
S'SR:C04-MG:G02A{Quad:H2}Fld-SP'
p812
sbsg49
g42
(g43
g44
F1.4772475385111008
tRp813
(dp814
g47
I01
sg2
S'SR:C04-MG:G02A{Quad:H2}Fld-I'
p815
sbsg53
VQH2G2C04A
p816
sg55
VQH2G2C04A
p817
sg57
g58
sg2
VQH2G2C04A.value
p818
sg60
(lp819
S'SR:C04-MG:G02A{Quad:H2}Fld-I'
p820
asg63
Nsg64
VC04
p821
sg66
F0.44800000000000001
sg67
F111.68600000000001
sg68
F112.134
sba(iaphla.gui.TunerUtils.knob
Knob
p822
(dp823
g21
VB
sg22
g23
sg24
I631
sg25
(lp824
VQUAD
p825
aVC05
p826
aVG6
p827
aVB
asg30
VQUAD
p828
sg32
Nsg33
I0
sg34
S''
sg35
(lp829
S'SR:C05-MG:G06B{Quad:H2}Fld-SP'
p830
asg38
F0
sg39
VG6
p831
sg41
g42
(g43
g44
F1.4776499999999999
tRp832
(dp833
g47
I01
sg2
S'SR:C05-MG:G06B{Quad:H2}Fld-SP'
p834
sbsg49
g42
(g43
g44
F1.4769591335191119
tRp835
(dp836
g47
I01
sg2
S'SR:C05-MG:G06B{Quad:H2}Fld-I'
p837
sbsg53
VQH2G6C05B
p838
sg55
VQH2G6C05B
p839
sg57
g58
sg2
VQH2G6C05B.value
p840
sg60
(lp841
S'SR:C05-MG:G06B{Quad:H2}Fld-I'
p842
asg63
Nsg64
VC05
p843
sg66
F0.44800000000000001
sg67
F151.852
sg68
F152.30000000000001
sba(iaphla.gui.TunerUtils.knob
Knob
p844
(dp845
g21
VA
sg22
g23
sg24
I666
sg25
(lp846
VQUAD
p847
aVC06
p848
aVG2
p849
aVA
asg30
VQUAD
p850
sg32
Nsg33
I0
sg34
S''
sg35
(lp851
S'SR:C06-MG:G02A{Quad:H2}Fld-SP'
p852
asg38
F0
sg39
VG2
p853
sg41
g42
(g43
g44
F1.4776499999999999
tRp854
(dp855
g47
I01
sg2
S'SR:C06-MG:G02A{Quad:H2}Fld-SP'
p856
sbsg49
g42
(g43
g44
F1.4779703660643166
tRp857
(dp858
g47
I01
sg2
S'SR:C06-MG:G02A{Quad:H2}Fld-I'
p859
sbsg53
VQH2G2C06A
p860
sg55
VQH2G2C06A
p861
sg57
g58
sg2
VQH2G2C06A.value
p862
sg60
(lp863
S'SR:C06-MG:G02A{Quad:H2}Fld-I'
p864
asg63
Nsg64
VC06
p865
sg66
F0.44800000000000001
sg67
F164.48399999999998
sg68
F164.93199999999999
sba(iaphla.gui.TunerUtils.knob
Knob
p866
(dp867
g21
VB
sg22
g23
sg24
I847
sg25
(lp868
VQUAD
p869
aVC07
p870
aVG6
p871
aVB
asg30
VQUAD
p872
sg32
Nsg33
I0
sg34
S''
sg35
(lp873
S'SR:C07-MG:G06B{Quad:H2}Fld-SP'
p874
asg38
F0
sg39
VG6
p875
sg41
g42
(g43
g44
F1.4776499999999999
tRp876
(dp877
g47
I01
sg2
S'SR:C07-MG:G06B{Quad:H2}Fld-SP'
p878
sbsg49
g42
(g43
g44
F1.4775670590444037
tRp879
(dp880
g47
I01
sg2
S'SR:C07-MG:G06B{Quad:H2}Fld-I'
p881
sbsg53
VQH2G6C07B
p882
sg55
VQH2G6C07B
p883
sg57
g58
sg2
VQH2G6C07B.value
p884
sg60
(lp885
S'SR:C07-MG:G06B{Quad:H2}Fld-I'
p886
asg63
Nsg64
VC07
p887
sg66
F0.44800000000000001
sg67
F204.649
sg68
F205.09700000000001
sba(iaphla.gui.TunerUtils.knob
Knob
p888
(dp889
g21
VA
sg22
g23
sg24
I882
sg25
(lp890
VQUAD
p891
aVC08
p892
aVG2
p893
aVA
asg30
VQUAD
p894
sg32
Nsg33
I0
sg34
S''
sg35
(lp895
S'SR:C08-MG:G02A{Quad:H2}Fld-SP'
p896
asg38
F0
sg39
VG2
p897
sg41
g42
(g43
g44
F1.4776499999999999
tRp898
(dp899
g47
I01
sg2
S'SR:C08-MG:G02A{Quad:H2}Fld-SP'
p900
sbsg49
g42
(g43
g44
F1.4770650841920347
tRp901
(dp902
g47
I01
sg2
S'SR:C08-MG:G02A{Quad:H2}Fld-I'
p903
sbsg53
VQH2G2C08A
p904
sg55
VQH2G2C08A
p905
sg57
g58
sg2
VQH2G2C08A.value
p906
sg60
(lp907
S'SR:C08-MG:G02A{Quad:H2}Fld-I'
p908
asg63
Nsg64
VC08
p909
sg66
F0.44800000000000001
sg67
F217.28100000000001
sg68
F217.72900000000001
sba(iaphla.gui.TunerUtils.knob
Knob
p910
(dp911
g21
VB
sg22
g23
sg24
I1063
sg25
(lp912
VQUAD
p913
aVC09
p914
aVG6
p915
aVB
asg30
VQUAD
p916
sg32
Nsg33
I0
sg34
S''
sg35
(lp917
S'SR:C09-MG:G06B{Quad:H2}Fld-SP'
p918
asg38
F0
sg39
VG6
p919
sg41
g42
(g43
g44
F1.4776499999999999
tRp920
(dp921
g47
I01
sg2
S'SR:C09-MG:G06B{Quad:H2}Fld-SP'
p922
sbsg49
g42
(g43
g44
F1.4776565725944151
tRp923
(dp924
g47
I01
sg2
S'SR:C09-MG:G06B{Quad:H2}Fld-I'
p925
sbsg53
VQH2G6C09B
p926
sg55
VQH2G6C09B
p927
sg57
g58
sg2
VQH2G6C09B.value
p928
sg60
(lp929
S'SR:C09-MG:G06B{Quad:H2}Fld-I'
p930
asg63
Nsg64
VC09
p931
sg66
F0.44800000000000001
sg67
F257.44600000000003
sg68
F257.89400000000001
sba(iaphla.gui.TunerUtils.knob
Knob
p932
(dp933
g21
VA
sg22
g23
sg24
I1098
sg25
(lp934
VQUAD
p935
aVC10
p936
aVG2
p937
aVA
asg30
VQUAD
p938
sg32
Nsg33
I0
sg34
S''
sg35
(lp939
S'SR:C10-MG:G02A{Quad:H2}Fld-SP'
p940
asg38
F0
sg39
VG2
p941
sg41
g42
(g43
g44
F1.4776499999999999
tRp942
(dp943
g47
I01
sg2
S'SR:C10-MG:G02A{Quad:H2}Fld-SP'
p944
sbsg49
g42
(g43
g44
F1.4774552911181047
tRp945
(dp946
g47
I01
sg2
S'SR:C10-MG:G02A{Quad:H2}Fld-I'
p947
sbsg53
VQH2G2C10A
p948
sg55
VQH2G2C10A
p949
sg57
g58
sg2
VQH2G2C10A.value
p950
sg60
(lp951
S'SR:C10-MG:G02A{Quad:H2}Fld-I'
p952
asg63
Nsg64
VC10
p953
sg66
F0.44800000000000001
sg67
F270.07800000000003
sg68
F270.52600000000001
sba(iaphla.gui.TunerUtils.knob
Knob
p954
(dp955
g21
VB
sg22
g23
sg24
I1279
sg25
(lp956
VQUAD
p957
aVC11
p958
aVG6
p959
aVB
asg30
VQUAD
p960
sg32
Nsg33
I0
sg34
S''
sg35
(lp961
S'SR:C11-MG:G06B{Quad:H2}Fld-SP'
p962
asg38
F0
sg39
VG6
p963
sg41
g42
(g43
g44
F1.4776499999999999
tRp964
(dp965
g47
I01
sg2
S'SR:C11-MG:G06B{Quad:H2}Fld-SP'
p966
sbsg49
g42
(g43
g44
F1.4776923329194322
tRp967
(dp968
g47
I01
sg2
S'SR:C11-MG:G06B{Quad:H2}Fld-I'
p969
sbsg53
VQH2G6C11B
p970
sg55
VQH2G6C11B
p971
sg57
g58
sg2
VQH2G6C11B.value
p972
sg60
(lp973
S'SR:C11-MG:G06B{Quad:H2}Fld-I'
p974
asg63
Nsg64
VC11
p975
sg66
F0.44800000000000001
sg67
F310.24299999999999
sg68
F310.69099999999997
sba(iaphla.gui.TunerUtils.knob
Knob
p976
(dp977
g21
VA
sg22
g23
sg24
I1314
sg25
(lp978
VQUAD
p979
aVC12
p980
aVG2
p981
aVA
asg30
VQUAD
p982
sg32
Nsg33
I0
sg34
S''
sg35
(lp983
S'SR:C12-MG:G02A{Quad:H2}Fld-SP'
p984
asg38
F0
sg39
VG2
p985
sg41
g42
(g43
g44
F1.4776499999999999
tRp986
(dp987
g47
I01
sg2
S'SR:C12-MG:G02A{Quad:H2}Fld-SP'
p988
sbsg49
g42
(g43
g44
F1.4770543515850307
tRp989
(dp990
g47
I01
sg2
S'SR:C12-MG:G02A{Quad:H2}Fld-I'
p991
sbsg53
VQH2G2C12A
p992
sg55
VQH2G2C12A
p993
sg57
g58
sg2
VQH2G2C12A.value
p994
sg60
(lp995
S'SR:C12-MG:G02A{Quad:H2}Fld-I'
p996
asg63
Nsg64
VC12
p997
sg66
F0.44800000000000001
sg67
F322.875
sg68
F323.32299999999998
sba(iaphla.gui.TunerUtils.knob
Knob
p998
(dp999
g21
VB
sg22
g23
sg24
I1495
sg25
(lp1000
VQUAD
p1001
aVC13
p1002
aVG6
p1003
aVB
asg30
VQUAD
p1004
sg32
Nsg33
I0
sg34
S''
sg35
(lp1005
S'SR:C13-MG:G06B{Quad:H2}Fld-SP'
p1006
asg38
F0
sg39
VG6
p1007
sg41
g42
(g43
g44
F1.4776499999999999
tRp1008
(dp1009
g47
I01
sg2
S'SR:C13-MG:G06B{Quad:H2}Fld-SP'
p1010
sbsg49
g42
(g43
g44
F1.4769153011913481
tRp1011
(dp1012
g47
I01
sg2
S'SR:C13-MG:G06B{Quad:H2}Fld-I'
p1013
sbsg53
VQH2G6C13B
p1014
sg55
VQH2G6C13B
p1015
sg57
g58
sg2
VQH2G6C13B.value
p1016
sg60
(lp1017
S'SR:C13-MG:G06B{Quad:H2}Fld-I'
p1018
asg63
Nsg64
VC13
p1019
sg66
F0.44800000000000001
sg67
F363.04000000000002
sg68
F363.488
sba(iaphla.gui.TunerUtils.knob
Knob
p1020
(dp1021
g21
VA
sg22
g23
sg24
I1530
sg25
(lp1022
VQUAD
p1023
aVC14
p1024
aVG2
p1025
aVA
asg30
VQUAD
p1026
sg32
Nsg33
I0
sg34
S''
sg35
(lp1027
S'SR:C14-MG:G02A{Quad:H2}Fld-SP'
p1028
asg38
F0
sg39
VG2
p1029
sg41
g42
(g43
g44
F1.4776499999999999
tRp1030
(dp1031
g47
I01
sg2
S'SR:C14-MG:G02A{Quad:H2}Fld-SP'
p1032
sbsg49
g42
(g43
g44
F1.4770773049336232
tRp1033
(dp1034
g47
I01
sg2
S'SR:C14-MG:G02A{Quad:H2}Fld-I'
p1035
sbsg53
VQH2G2C14A
p1036
sg55
VQH2G2C14A
p1037
sg57
g58
sg2
VQH2G2C14A.value
p1038
sg60
(lp1039
S'SR:C14-MG:G02A{Quad:H2}Fld-I'
p1040
asg63
Nsg64
VC14
p1041
sg66
F0.44800000000000001
sg67
F375.67200000000003
sg68
F376.12
sba(iaphla.gui.TunerUtils.knob
Knob
p1042
(dp1043
g21
VB
sg22
g23
sg24
I1711
sg25
(lp1044
VQUAD
p1045
aVC15
p1046
aVG6
p1047
aVB
asg30
VQUAD
p1048
sg32
Nsg33
I0
sg34
S''
sg35
(lp1049
S'SR:C15-MG:G06B{Quad:H2}Fld-SP'
p1050
asg38
F0
sg39
VG6
p1051
sg41
g42
(g43
g44
F1.4776499999999999
tRp1052
(dp1053
g47
I01
sg2
S'SR:C15-MG:G06B{Quad:H2}Fld-SP'
p1054
sbsg49
g42
(g43
g44
F1.4779604677145799
tRp1055
(dp1056
g47
I01
sg2
S'SR:C15-MG:G06B{Quad:H2}Fld-I'
p1057
sbsg53
VQH2G6C15B
p1058
sg55
VQH2G6C15B
p1059
sg57
g58
sg2
VQH2G6C15B.value
p1060
sg60
(lp1061
S'SR:C15-MG:G06B{Quad:H2}Fld-I'
p1062
asg63
Nsg64
VC15
p1063
sg66
F0.44800000000000001
sg67
F415.83800000000002
sg68
F416.286
sba(iaphla.gui.TunerUtils.knob
Knob
p1064
(dp1065
g21
VA
sg22
g23
sg24
I1746
sg25
(lp1066
VQUAD
p1067
aVC16
p1068
aVG2
p1069
aVA
asg30
VQUAD
p1070
sg32
Nsg33
I0
sg34
S''
sg35
(lp1071
S'SR:C16-MG:G02A{Quad:H2}Fld-SP'
p1072
asg38
F0
sg39
VG2
p1073
sg41
g42
(g43
g44
F1.4776499999999999
tRp1074
(dp1075
g47
I01
sg2
S'SR:C16-MG:G02A{Quad:H2}Fld-SP'
p1076
sbsg49
g42
(g43
g44
F1.477053720255207
tRp1077
(dp1078
g47
I01
sg2
S'SR:C16-MG:G02A{Quad:H2}Fld-I'
p1079
sbsg53
VQH2G2C16A
p1080
sg55
VQH2G2C16A
p1081
sg57
g58
sg2
VQH2G2C16A.value
p1082
sg60
(lp1083
S'SR:C16-MG:G02A{Quad:H2}Fld-I'
p1084
asg63
Nsg64
VC16
p1085
sg66
F0.44800000000000001
sg67
F428.47000000000003
sg68
F428.91800000000001
sba(iaphla.gui.TunerUtils.knob
Knob
p1086
(dp1087
g21
VB
sg22
g23
sg24
I1927
sg25
(lp1088
VQUAD
p1089
aVC17
p1090
aVG6
p1091
aVB
asg30
VQUAD
p1092
sg32
Nsg33
I0
sg34
S''
sg35
(lp1093
S'SR:C17-MG:G06B{Quad:H2}Fld-SP'
p1094
asg38
F0
sg39
VG6
p1095
sg41
g42
(g43
g44
F1.4776499999999999
tRp1096
(dp1097
g47
I01
sg2
S'SR:C17-MG:G06B{Quad:H2}Fld-SP'
p1098
sbsg49
g42
(g43
g44
F1.4781755257095444
tRp1099
(dp1100
g47
I01
sg2
S'SR:C17-MG:G06B{Quad:H2}Fld-I'
p1101
sbsg53
VQH2G6C17B
p1102
sg55
VQH2G6C17B
p1103
sg57
g58
sg2
VQH2G6C17B.value
p1104
sg60
(lp1105
S'SR:C17-MG:G06B{Quad:H2}Fld-I'
p1106
asg63
Nsg64
VC17
p1107
sg66
F0.44800000000000001
sg67
F468.63500000000005
sg68
F469.08300000000003
sba(iaphla.gui.TunerUtils.knob
Knob
p1108
(dp1109
g21
VA
sg22
g23
sg24
I1962
sg25
(lp1110
VQUAD
p1111
aVC18
p1112
aVG2
p1113
aVA
asg30
VQUAD
p1114
sg32
Nsg33
I0
sg34
S''
sg35
(lp1115
S'SR:C18-MG:G02A{Quad:H2}Fld-SP'
p1116
asg38
F0
sg39
VG2
p1117
sg41
g42
(g43
g44
F1.4776499999999999
tRp1118
(dp1119
g47
I01
sg2
S'SR:C18-MG:G02A{Quad:H2}Fld-SP'
p1120
sbsg49
g42
(g43
g44
F1.4772289142813
tRp1121
(dp1122
g47
I01
sg2
S'SR:C18-MG:G02A{Quad:H2}Fld-I'
p1123
sbsg53
VQH2G2C18A
p1124
sg55
VQH2G2C18A
p1125
sg57
g58
sg2
VQH2G2C18A.value
p1126
sg60
(lp1127
S'SR:C18-MG:G02A{Quad:H2}Fld-I'
p1128
asg63
Nsg64
VC18
p1129
sg66
F0.44800000000000001
sg67
F481.267
sg68
F481.71499999999997
sba(iaphla.gui.TunerUtils.knob
Knob
p1130
(dp1131
g21
VB
sg22
g23
sg24
I2143
sg25
(lp1132
VQUAD
p1133
aVC19
p1134
aVG6
p1135
aVB
asg30
VQUAD
p1136
sg32
Nsg33
I0
sg34
S''
sg35
(lp1137
S'SR:C19-MG:G06B{Quad:H2}Fld-SP'
p1138
asg38
F0
sg39
VG6
p1139
sg41
g42
(g43
g44
F1.4776499999999999
tRp1140
(dp1141
g47
I01
sg2
S'SR:C19-MG:G06B{Quad:H2}Fld-SP'
p1142
sbsg49
g42
(g43
g44
F1.4771939431185623
tRp1143
(dp1144
g47
I01
sg2
S'SR:C19-MG:G06B{Quad:H2}Fld-I'
p1145
sbsg53
VQH2G6C19B
p1146
sg55
VQH2G6C19B
p1147
sg57
g58
sg2
VQH2G6C19B.value
p1148
sg60
(lp1149
S'SR:C19-MG:G06B{Quad:H2}Fld-I'
p1150
asg63
Nsg64
VC19
p1151
sg66
F0.44800000000000001
sg67
F521.43200000000002
sg68
F521.88
sba(iaphla.gui.TunerUtils.knob
Knob
p1152
(dp1153
g21
VA
sg22
g23
sg24
I2178
sg25
(lp1154
VQUAD
p1155
aVC20
p1156
aVG2
p1157
aVA
asg30
VQUAD
p1158
sg32
Nsg33
I0
sg34
S''
sg35
(lp1159
S'SR:C20-MG:G02A{Quad:H2}Fld-SP'
p1160
asg38
F0
sg39
VG2
p1161
sg41
g42
(g43
g44
F1.4776499999999999
tRp1162
(dp1163
g47
I01
sg2
S'SR:C20-MG:G02A{Quad:H2}Fld-SP'
p1164
sbsg49
g42
(g43
g44
F1.4780098241783015
tRp1165
(dp1166
g47
I01
sg2
S'SR:C20-MG:G02A{Quad:H2}Fld-I'
p1167
sbsg53
VQH2G2C20A
p1168
sg55
VQH2G2C20A
p1169
sg57
g58
sg2
VQH2G2C20A.value
p1170
sg60
(lp1171
S'SR:C20-MG:G02A{Quad:H2}Fld-I'
p1172
asg63
Nsg64
VC20
p1173
sg66
F0.44800000000000001
sg67
F534.06399999999996
sg68
F534.51199999999994
sba(iaphla.gui.TunerUtils.knob
Knob
p1174
(dp1175
g21
VB
sg22
g23
sg24
I2359
sg25
(lp1176
VQUAD
p1177
aVC21
p1178
aVG6
p1179
aVB
asg30
VQUAD
p1180
sg32
Nsg33
I0
sg34
S''
sg35
(lp1181
S'SR:C21-MG:G06B{Quad:H2}Fld-SP'
p1182
asg38
F0
sg39
VG6
p1183
sg41
g42
(g43
g44
F1.4776499999999999
tRp1184
(dp1185
g47
I01
sg2
S'SR:C21-MG:G06B{Quad:H2}Fld-SP'
p1186
sbsg49
g42
(g43
g44
F1.4771196716742963
tRp1187
(dp1188
g47
I01
sg2
S'SR:C21-MG:G06B{Quad:H2}Fld-I'
p1189
sbsg53
VQH2G6C21B
p1190
sg55
VQH2G6C21B
p1191
sg57
g58
sg2
VQH2G6C21B.value
p1192
sg60
(lp1193
S'SR:C21-MG:G06B{Quad:H2}Fld-I'
p1194
asg63
Nsg64
VC21
p1195
sg66
F0.44800000000000001
sg67
F574.22900000000004
sg68
F574.67700000000002
sba(iaphla.gui.TunerUtils.knob
Knob
p1196
(dp1197
g21
VA
sg22
g23
sg24
I2394
sg25
(lp1198
VQUAD
p1199
aVC22
p1200
aVG2
p1201
aVA
asg30
VQUAD
p1202
sg32
Nsg33
I0
sg34
S''
sg35
(lp1203
S'SR:C22-MG:G02A{Quad:H2}Fld-SP'
p1204
asg38
F0
sg39
VG2
p1205
sg41
g42
(g43
g44
F1.4776499999999999
tRp1206
(dp1207
g47
I01
sg2
S'SR:C22-MG:G02A{Quad:H2}Fld-SP'
p1208
sbsg49
g42
(g43
g44
F1.4779332077946896
tRp1209
(dp1210
g47
I01
sg2
S'SR:C22-MG:G02A{Quad:H2}Fld-I'
p1211
sbsg53
VQH2G2C22A
p1212
sg55
VQH2G2C22A
p1213
sg57
g58
sg2
VQH2G2C22A.value
p1214
sg60
(lp1215
S'SR:C22-MG:G02A{Quad:H2}Fld-I'
p1216
asg63
Nsg64
VC22
p1217
sg66
F0.44800000000000001
sg67
F586.86099999999999
sg68
F587.30899999999997
sba(iaphla.gui.TunerUtils.knob
Knob
p1218
(dp1219
g21
VB
sg22
g23
sg24
I2575
sg25
(lp1220
VQUAD
p1221
aVC23
p1222
aVG6
p1223
aVB
asg30
VQUAD
p1224
sg32
Nsg33
I0
sg34
S''
sg35
(lp1225
S'SR:C23-MG:G06B{Quad:H2}Fld-SP'
p1226
asg38
F0
sg39
VG6
p1227
sg41
g42
(g43
g44
F1.4776499999999999
tRp1228
(dp1229
g47
I01
sg2
S'SR:C23-MG:G06B{Quad:H2}Fld-SP'
p1230
sbsg49
g42
(g43
g44
F1.4782788383257037
tRp1231
(dp1232
g47
I01
sg2
S'SR:C23-MG:G06B{Quad:H2}Fld-I'
p1233
sbsg53
VQH2G6C23B
p1234
sg55
VQH2G6C23B
p1235
sg57
g58
sg2
VQH2G6C23B.value
p1236
sg60
(lp1237
S'SR:C23-MG:G06B{Quad:H2}Fld-I'
p1238
asg63
Nsg64
VC23
p1239
sg66
F0.44800000000000001
sg67
F627.02600000000007
sg68
F627.47400000000005
sba(iaphla.gui.TunerUtils.knob
Knob
p1240
(dp1241
g21
VA
sg22
g23
sg24
I2610
sg25
(lp1242
VQUAD
p1243
aVC24
p1244
aVG2
p1245
aVA
asg30
VQUAD
p1246
sg32
Nsg33
I0
sg34
S''
sg35
(lp1247
S'SR:C24-MG:G02A{Quad:H2}Fld-SP'
p1248
asg38
F0
sg39
VG2
p1249
sg41
g42
(g43
g44
F1.4776499999999999
tRp1250
(dp1251
g47
I01
sg2
S'SR:C24-MG:G02A{Quad:H2}Fld-SP'
p1252
sbsg49
g42
(g43
g44
F1.4775445340981919
tRp1253
(dp1254
g47
I01
sg2
S'SR:C24-MG:G02A{Quad:H2}Fld-I'
p1255
sbsg53
VQH2G2C24A
p1256
sg55
VQH2G2C24A
p1257
sg57
g58
sg2
VQH2G2C24A.value
p1258
sg60
(lp1259
S'SR:C24-MG:G02A{Quad:H2}Fld-I'
p1260
asg63
Nsg64
VC24
p1261
sg66
F0.44800000000000001
sg67
F639.65800000000002
sg68
F640.10599999999999
sba(iaphla.gui.TunerUtils.knob
Knob
p1262
(dp1263
g21
VB
sg22
g23
sg24
I2791
sg25
(lp1264
VQUAD
p1265
aVC25
p1266
aVG6
p1267
aVB
asg30
VQUAD
p1268
sg32
Nsg33
I0
sg34
S''
sg35
(lp1269
S'SR:C25-MG:G06B{Quad:H2}Fld-SP'
p1270
asg38
F0
sg39
VG6
p1271
sg41
g42
(g43
g44
F1.4776499999999999
tRp1272
(dp1273
g47
I01
sg2
S'SR:C25-MG:G06B{Quad:H2}Fld-SP'
p1274
sbsg49
g42
(g43
g44
F1.4779267817589836
tRp1275
(dp1276
g47
I01
sg2
S'SR:C25-MG:G06B{Quad:H2}Fld-I'
p1277
sbsg53
VQH2G6C25B
p1278
sg55
VQH2G6C25B
p1279
sg57
g58
sg2
VQH2G6C25B.value
p1280
sg60
(lp1281
S'SR:C25-MG:G06B{Quad:H2}Fld-I'
p1282
asg63
Nsg64
VC25
p1283
sg66
F0.44800000000000001
sg67
F679.82400000000007
sg68
F680.27200000000005
sba(iaphla.gui.TunerUtils.knob
Knob
p1284
(dp1285
g21
VA
sg22
g23
sg24
I2826
sg25
(lp1286
VQUAD
p1287
aVC26
p1288
aVG2
p1289
aVA
asg30
VQUAD
p1290
sg32
Nsg33
I0
sg34
S''
sg35
(lp1291
S'SR:C26-MG:G02A{Quad:H2}Fld-SP'
p1292
asg38
F0
sg39
VG2
p1293
sg41
g42
(g43
g44
F1.4776499999999999
tRp1294
(dp1295
g47
I01
sg2
S'SR:C26-MG:G02A{Quad:H2}Fld-SP'
p1296
sbsg49
g42
(g43
g44
F1.4773661834229801
tRp1297
(dp1298
g47
I01
sg2
S'SR:C26-MG:G02A{Quad:H2}Fld-I'
p1299
sbsg53
VQH2G2C26A
p1300
sg55
VQH2G2C26A
p1301
sg57
g58
sg2
VQH2G2C26A.value
p1302
sg60
(lp1303
S'SR:C26-MG:G02A{Quad:H2}Fld-I'
p1304
asg63
Nsg64
VC26
p1305
sg66
F0.44800000000000001
sg67
F692.45600000000002
sg68
F692.904
sba(iaphla.gui.TunerUtils.knob
Knob
p1306
(dp1307
g21
VB
sg22
g23
sg24
I3007
sg25
(lp1308
VQUAD
p1309
aVC27
p1310
aVG6
p1311
aVB
asg30
VQUAD
p1312
sg32
Nsg33
I0
sg34
S''
sg35
(lp1313
S'SR:C27-MG:G06B{Quad:H2}Fld-SP'
p1314
asg38
F0
sg39
VG6
p1315
sg41
g42
(g43
g44
F1.4776499999999999
tRp1316
(dp1317
g47
I01
sg2
S'SR:C27-MG:G06B{Quad:H2}Fld-SP'
p1318
sbsg49
g42
(g43
g44
F1.4778211242034791
tRp1319
(dp1320
g47
I01
sg2
S'SR:C27-MG:G06B{Quad:H2}Fld-I'
p1321
sbsg53
VQH2G6C27B
p1322
sg55
VQH2G6C27B
p1323
sg57
g58
sg2
VQH2G6C27B.value
p1324
sg60
(lp1325
S'SR:C27-MG:G06B{Quad:H2}Fld-I'
p1326
asg63
Nsg64
VC27
p1327
sg66
F0.44800000000000001
sg67
F732.62099999999998
sg68
F733.06899999999996
sba(iaphla.gui.TunerUtils.knob
Knob
p1328
(dp1329
g21
VA
sg22
g23
sg24
I3042
sg25
(lp1330
VQUAD
p1331
aVC28
p1332
aVG2
p1333
aVA
asg30
VQUAD
p1334
sg32
Nsg33
I0
sg34
S''
sg35
(lp1335
S'SR:C28-MG:G02A{Quad:H2}Fld-SP'
p1336
asg38
F0
sg39
VG2
p1337
sg41
g42
(g43
g44
F1.4776499999999999
tRp1338
(dp1339
g47
I01
sg2
S'SR:C28-MG:G02A{Quad:H2}Fld-SP'
p1340
sbsg49
g42
(g43
g44
F1.4773433202643624
tRp1341
(dp1342
g47
I01
sg2
S'SR:C28-MG:G02A{Quad:H2}Fld-I'
p1343
sbsg53
VQH2G2C28A
p1344
sg55
VQH2G2C28A
p1345
sg57
g58
sg2
VQH2G2C28A.value
p1346
sg60
(lp1347
S'SR:C28-MG:G02A{Quad:H2}Fld-I'
p1348
asg63
Nsg64
VC28
p1349
sg66
F0.44800000000000001
sg67
F745.25300000000004
sg68
F745.70100000000002
sba(iaphla.gui.TunerUtils.knob
Knob
p1350
(dp1351
g21
VB
sg22
g23
sg24
I3227
sg25
(lp1352
VQUAD
p1353
aVC29
p1354
aVG6
p1355
aVB
asg30
VQUAD
p1356
sg32
Nsg33
I0
sg34
S''
sg35
(lp1357
S'SR:C29-MG:G06B{Quad:H2}Fld-SP'
p1358
asg38
F0
sg39
VG6
p1359
sg41
g42
(g43
g44
F1.4776499999999999
tRp1360
(dp1361
g47
I01
sg2
S'SR:C29-MG:G06B{Quad:H2}Fld-SP'
p1362
sbsg49
g42
(g43
g44
F1.4771170787125198
tRp1363
(dp1364
g47
I01
sg2
S'SR:C29-MG:G06B{Quad:H2}Fld-I'
p1365
sbsg53
VQH2G6C29B
p1366
sg55
VQH2G6C29B
p1367
sg57
g58
sg2
VQH2G6C29B.value
p1368
sg60
(lp1369
S'SR:C29-MG:G06B{Quad:H2}Fld-I'
p1370
asg63
Nsg64
VC29
p1371
sg66
F0.44800000000000001
sg67
F785.41800000000001
sg68
F785.86599999999999
sbasg2
S'QH2'
p1372
sg708
F-3.4173
sba(iaphla.gui.TunerUtils.knob
KnobGroup
p1373
(dp1374
g17
(lp1375
(iaphla.gui.TunerUtils.knob
Knob
p1376
(dp1377
g21
VA
sg22
g23
sg24
I22
sg25
(lp1378
VQUAD
p1379
aVC30
p1380
aVG2
p1381
aVA
asg30
VQUAD
p1382
sg32
Nsg33
I0
sg34
S''
sg35
(lp1383
S'SR:C30-MG:G02A{Quad:H3}Fld-SP'
p1384
asg38
F0
sg39
VG2
p1385
sg41
g42
(g43
g44
F-1.7075499999999999
tRp1386
(dp1387
g47
I01
sg2
S'SR:C30-MG:G02A{Quad:H3}Fld-SP'
p1388
sbsg49
g42
(g43
g44
F-1.7072044123075454
tRp1389
(dp1390
g47
I01
sg2
S'SR:C30-MG:G02A{Quad:H3}Fld-I'
p1391
sbsg53
VQH3G2C30A
p1392
sg55
VQH3G2C30A
p1393
sg57
g58
sg2
VQH3G2C30A.value
p1394
sg60
(lp1395
S'SR:C30-MG:G02A{Quad:H3}Fld-I'
p1396
asg63
Nsg64
VC30
p1397
sg66
F0.27500000000000002
sg67
F7.1124999999999998
sg68
F7.3875000000000002
sba(iaphla.gui.TunerUtils.knob
Knob
p1398
(dp1399
g21
VB
sg22
g23
sg24
I195
sg25
(lp1400
VQUAD
p1401
aVC01
p1402
aVG6
p1403
aVB
asg30
VQUAD
p1404
sg32
Nsg33
I0
sg34
S''
sg35
(lp1405
S'SR:C01-MG:G06B{Quad:H3}Fld-SP'
p1406
asg38
F0
sg39
VG6
p1407
sg41
g42
(g43
g44
F-1.7075499999999999
tRp1408
(dp1409
g47
I01
sg2
S'SR:C01-MG:G06B{Quad:H3}Fld-SP'
p1410
sbsg49
g42
(g43
g44
F-1.7079907946459905
tRp1411
(dp1412
g47
I01
sg2
S'SR:C01-MG:G06B{Quad:H3}Fld-I'
p1413
sbsg53
VQH3G6C01B
p1414
sg55
VQH3G6C01B
p1415
sg57
g58
sg2
VQH3G6C01B.value
p1416
sg60
(lp1417
S'SR:C01-MG:G06B{Quad:H3}Fld-I'
p1418
asg63
Nsg64
VC01
p1419
sg66
F0.27500000000000002
sg67
F45.409700000000001
sg68
F45.684699999999999
sba(iaphla.gui.TunerUtils.knob
Knob
p1420
(dp1421
g21
VA
sg22
g23
sg24
I238
sg25
(lp1422
VQUAD
p1423
aVC02
p1424
aVG2
p1425
aVA
asg30
VQUAD
p1426
sg32
Nsg33
I0
sg34
S''
sg35
(lp1427
S'SR:C02-MG:G02A{Quad:H3}Fld-SP'
p1428
asg38
F0
sg39
VG2
p1429
sg41
g42
(g43
g44
F-1.7075499999999999
tRp1430
(dp1431
g47
I01
sg2
S'SR:C02-MG:G02A{Quad:H3}Fld-SP'
p1432
sbsg49
g42
(g43
g44
F-1.7075223420412757
tRp1433
(dp1434
g47
I01
sg2
S'SR:C02-MG:G02A{Quad:H3}Fld-I'
p1435
sbsg53
VQH3G2C02A
p1436
sg55
VQH3G2C02A
p1437
sg57
g58
sg2
VQH3G2C02A.value
p1438
sg60
(lp1439
S'SR:C02-MG:G02A{Quad:H3}Fld-I'
p1440
asg63
Nsg64
VC02
p1441
sg66
F0.27500000000000002
sg67
F59.909700000000001
sg68
F60.184699999999999
sba(iaphla.gui.TunerUtils.knob
Knob
p1442
(dp1443
g21
VB
sg22
g23
sg24
I411
sg25
(lp1444
VQUAD
p1445
aVC03
p1446
aVG6
p1447
aVB
asg30
VQUAD
p1448
sg32
Nsg33
I0
sg34
S''
sg35
(lp1449
S'SR:C03-MG:G06B{Quad:H3}Fld-SP'
p1450
asg38
F0
sg39
VG6
p1451
sg41
g42
(g43
g44
F-1.7075499999999999
tRp1452
(dp1453
g47
I01
sg2
S'SR:C03-MG:G06B{Quad:H3}Fld-SP'
p1454
sbsg49
g42
(g43
g44
F-1.7069994854631112
tRp1455
(dp1456
g47
I01
sg2
S'SR:C03-MG:G06B{Quad:H3}Fld-I'
p1457
sbsg53
VQH3G6C03B
p1458
sg55
VQH3G6C03B
p1459
sg57
g58
sg2
VQH3G6C03B.value
p1460
sg60
(lp1461
S'SR:C03-MG:G06B{Quad:H3}Fld-I'
p1462
asg63
Nsg64
VC03
p1463
sg66
F0.27500000000000002
sg67
F98.20689999999999
sg68
F98.481899999999996
sba(iaphla.gui.TunerUtils.knob
Knob
p1464
(dp1465
g21
VA
sg22
g23
sg24
I454
sg25
(lp1466
VQUAD
p1467
aVC04
p1468
aVG2
p1469
aVA
asg30
VQUAD
p1470
sg32
Nsg33
I0
sg34
S''
sg35
(lp1471
S'SR:C04-MG:G02A{Quad:H3}Fld-SP'
p1472
asg38
F0
sg39
VG2
p1473
sg41
g42
(g43
g44
F-1.7075499999999999
tRp1474
(dp1475
g47
I01
sg2
S'SR:C04-MG:G02A{Quad:H3}Fld-SP'
p1476
sbsg49
g42
(g43
g44
F-1.7072828916025786
tRp1477
(dp1478
g47
I01
sg2
S'SR:C04-MG:G02A{Quad:H3}Fld-I'
p1479
sbsg53
VQH3G2C04A
p1480
sg55
VQH3G2C04A
p1481
sg57
g58
sg2
VQH3G2C04A.value
p1482
sg60
(lp1483
S'SR:C04-MG:G02A{Quad:H3}Fld-I'
p1484
asg63
Nsg64
VC04
p1485
sg66
F0.27500000000000002
sg67
F112.70699999999999
sg68
F112.982
sba(iaphla.gui.TunerUtils.knob
Knob
p1486
(dp1487
g21
VB
sg22
g23
sg24
I627
sg25
(lp1488
VQUAD
p1489
aVC05
p1490
aVG6
p1491
aVB
asg30
VQUAD
p1492
sg32
Nsg33
I0
sg34
S''
sg35
(lp1493
S'SR:C05-MG:G06B{Quad:H3}Fld-SP'
p1494
asg38
F0
sg39
VG6
p1495
sg41
g42
(g43
g44
F-1.7075499999999999
tRp1496
(dp1497
g47
I01
sg2
S'SR:C05-MG:G06B{Quad:H3}Fld-SP'
p1498
sbsg49
g42
(g43
g44
F-1.7067264754852367
tRp1499
(dp1500
g47
I01
sg2
S'SR:C05-MG:G06B{Quad:H3}Fld-I'
p1501
sbsg53
VQH3G6C05B
p1502
sg55
VQH3G6C05B
p1503
sg57
g58
sg2
VQH3G6C05B.value
p1504
sg60
(lp1505
S'SR:C05-MG:G06B{Quad:H3}Fld-I'
p1506
asg63
Nsg64
VC05
p1507
sg66
F0.27500000000000002
sg67
F151.00399999999999
sg68
F151.279
sba(iaphla.gui.TunerUtils.knob
Knob
p1508
(dp1509
g21
VA
sg22
g23
sg24
I670
sg25
(lp1510
VQUAD
p1511
aVC06
p1512
aVG2
p1513
aVA
asg30
VQUAD
p1514
sg32
Nsg33
I0
sg34
S''
sg35
(lp1515
S'SR:C06-MG:G02A{Quad:H3}Fld-SP'
p1516
asg38
F0
sg39
VG2
p1517
sg41
g42
(g43
g44
F-1.7075499999999999
tRp1518
(dp1519
g47
I01
sg2
S'SR:C06-MG:G02A{Quad:H3}Fld-SP'
p1520
sbsg49
g42
(g43
g44
F-1.7077033759529257
tRp1521
(dp1522
g47
I01
sg2
S'SR:C06-MG:G02A{Quad:H3}Fld-I'
p1523
sbsg53
VQH3G2C06A
p1524
sg55
VQH3G2C06A
p1525
sg57
g58
sg2
VQH3G2C06A.value
p1526
sg60
(lp1527
S'SR:C06-MG:G02A{Quad:H3}Fld-I'
p1528
asg63
Nsg64
VC06
p1529
sg66
F0.27500000000000002
sg67
F165.50399999999999
sg68
F165.779
sba(iaphla.gui.TunerUtils.knob
Knob
p1530
(dp1531
g21
VB
sg22
g23
sg24
I843
sg25
(lp1532
VQUAD
p1533
aVC07
p1534
aVG6
p1535
aVB
asg30
VQUAD
p1536
sg32
Nsg33
I0
sg34
S''
sg35
(lp1537
S'SR:C07-MG:G06B{Quad:H3}Fld-SP'
p1538
asg38
F0
sg39
VG6
p1539
sg41
g42
(g43
g44
F-1.7075499999999999
tRp1540
(dp1541
g47
I01
sg2
S'SR:C07-MG:G06B{Quad:H3}Fld-SP'
p1542
sbsg49
g42
(g43
g44
F-1.7083757392359042
tRp1543
(dp1544
g47
I01
sg2
S'SR:C07-MG:G06B{Quad:H3}Fld-I'
p1545
sbsg53
VQH3G6C07B
p1546
sg55
VQH3G6C07B
p1547
sg57
g58
sg2
VQH3G6C07B.value
p1548
sg60
(lp1549
S'SR:C07-MG:G06B{Quad:H3}Fld-I'
p1550
asg63
Nsg64
VC07
p1551
sg66
F0.27500000000000002
sg67
F203.80099999999999
sg68
F204.07599999999999
sba(iaphla.gui.TunerUtils.knob
Knob
p1552
(dp1553
g21
VA
sg22
g23
sg24
I886
sg25
(lp1554
VQUAD
p1555
aVC08
p1556
aVG2
p1557
aVA
asg30
VQUAD
p1558
sg32
Nsg33
I0
sg34
S''
sg35
(lp1559
S'SR:C08-MG:G02A{Quad:H3}Fld-SP'
p1560
asg38
F0
sg39
VG2
p1561
sg41
g42
(g43
g44
F-1.7075499999999999
tRp1562
(dp1563
g47
I01
sg2
S'SR:C08-MG:G02A{Quad:H3}Fld-SP'
p1564
sbsg49
g42
(g43
g44
F-1.7069861710807199
tRp1565
(dp1566
g47
I01
sg2
S'SR:C08-MG:G02A{Quad:H3}Fld-I'
p1567
sbsg53
VQH3G2C08A
p1568
sg55
VQH3G2C08A
p1569
sg57
g58
sg2
VQH3G2C08A.value
p1570
sg60
(lp1571
S'SR:C08-MG:G02A{Quad:H3}Fld-I'
p1572
asg63
Nsg64
VC08
p1573
sg66
F0.27500000000000002
sg67
F218.30099999999999
sg68
F218.57599999999999
sba(iaphla.gui.TunerUtils.knob
Knob
p1574
(dp1575
g21
VB
sg22
g23
sg24
I1059
sg25
(lp1576
VQUAD
p1577
aVC09
p1578
aVG6
p1579
aVB
asg30
VQUAD
p1580
sg32
Nsg33
I0
sg34
S''
sg35
(lp1581
S'SR:C09-MG:G06B{Quad:H3}Fld-SP'
p1582
asg38
F0
sg39
VG6
p1583
sg41
g42
(g43
g44
F-1.7075499999999999
tRp1584
(dp1585
g47
I01
sg2
S'SR:C09-MG:G06B{Quad:H3}Fld-SP'
p1586
sbsg49
g42
(g43
g44
F-1.7072547776718545
tRp1587
(dp1588
g47
I01
sg2
S'SR:C09-MG:G06B{Quad:H3}Fld-I'
p1589
sbsg53
VQH3G6C09B
p1590
sg55
VQH3G6C09B
p1591
sg57
g58
sg2
VQH3G6C09B.value
p1592
sg60
(lp1593
S'SR:C09-MG:G06B{Quad:H3}Fld-I'
p1594
asg63
Nsg64
VC09
p1595
sg66
F0.27500000000000002
sg67
F256.59800000000001
sg68
F256.87299999999999
sba(iaphla.gui.TunerUtils.knob
Knob
p1596
(dp1597
g21
VA
sg22
g23
sg24
I1102
sg25
(lp1598
VQUAD
p1599
aVC10
p1600
aVG2
p1601
aVA
asg30
VQUAD
p1602
sg32
Nsg33
I0
sg34
S''
sg35
(lp1603
S'SR:C10-MG:G02A{Quad:H3}Fld-SP'
p1604
asg38
F0
sg39
VG2
p1605
sg41
g42
(g43
g44
F-1.7075499999999999
tRp1606
(dp1607
g47
I01
sg2
S'SR:C10-MG:G02A{Quad:H3}Fld-SP'
p1608
sbsg49
g42
(g43
g44
F-1.7082162532581826
tRp1609
(dp1610
g47
I01
sg2
S'SR:C10-MG:G02A{Quad:H3}Fld-I'
p1611
sbsg53
VQH3G2C10A
p1612
sg55
VQH3G2C10A
p1613
sg57
g58
sg2
VQH3G2C10A.value
p1614
sg60
(lp1615
S'SR:C10-MG:G02A{Quad:H3}Fld-I'
p1616
asg63
Nsg64
VC10
p1617
sg66
F0.27500000000000002
sg67
F271.09800000000001
sg68
F271.37299999999999
sba(iaphla.gui.TunerUtils.knob
Knob
p1618
(dp1619
g21
VB
sg22
g23
sg24
I1275
sg25
(lp1620
VQUAD
p1621
aVC11
p1622
aVG6
p1623
aVB
asg30
VQUAD
p1624
sg32
Nsg33
I0
sg34
S''
sg35
(lp1625
S'SR:C11-MG:G06B{Quad:H3}Fld-SP'
p1626
asg38
F0
sg39
VG6
p1627
sg41
g42
(g43
g44
F-1.7075499999999999
tRp1628
(dp1629
g47
I01
sg2
S'SR:C11-MG:G06B{Quad:H3}Fld-SP'
p1630
sbsg49
g42
(g43
g44
F-1.7083562496898603
tRp1631
(dp1632
g47
I01
sg2
S'SR:C11-MG:G06B{Quad:H3}Fld-I'
p1633
sbsg53
VQH3G6C11B
p1634
sg55
VQH3G6C11B
p1635
sg57
g58
sg2
VQH3G6C11B.value
p1636
sg60
(lp1637
S'SR:C11-MG:G06B{Quad:H3}Fld-I'
p1638
asg63
Nsg64
VC11
p1639
sg66
F0.27500000000000002
sg67
F309.39600000000002
sg68
F309.67099999999999
sba(iaphla.gui.TunerUtils.knob
Knob
p1640
(dp1641
g21
VA
sg22
g23
sg24
I1318
sg25
(lp1642
VQUAD
p1643
aVC12
p1644
aVG2
p1645
aVA
asg30
VQUAD
p1646
sg32
Nsg33
I0
sg34
S''
sg35
(lp1647
S'SR:C12-MG:G02A{Quad:H3}Fld-SP'
p1648
asg38
F0
sg39
VG2
p1649
sg41
g42
(g43
g44
F-1.7075499999999999
tRp1650
(dp1651
g47
I01
sg2
S'SR:C12-MG:G02A{Quad:H3}Fld-SP'
p1652
sbsg49
g42
(g43
g44
F-1.7067678256317234
tRp1653
(dp1654
g47
I01
sg2
S'SR:C12-MG:G02A{Quad:H3}Fld-I'
p1655
sbsg53
VQH3G2C12A
p1656
sg55
VQH3G2C12A
p1657
sg57
g58
sg2
VQH3G2C12A.value
p1658
sg60
(lp1659
S'SR:C12-MG:G02A{Quad:H3}Fld-I'
p1660
asg63
Nsg64
VC12
p1661
sg66
F0.27500000000000002
sg67
F323.89600000000002
sg68
F324.17099999999999
sba(iaphla.gui.TunerUtils.knob
Knob
p1662
(dp1663
g21
VB
sg22
g23
sg24
I1491
sg25
(lp1664
VQUAD
p1665
aVC13
p1666
aVG6
p1667
aVB
asg30
VQUAD
p1668
sg32
Nsg33
I0
sg34
S''
sg35
(lp1669
S'SR:C13-MG:G06B{Quad:H3}Fld-SP'
p1670
asg38
F0
sg39
VG6
p1671
sg41
g42
(g43
g44
F-1.7075499999999999
tRp1672
(dp1673
g47
I01
sg2
S'SR:C13-MG:G06B{Quad:H3}Fld-SP'
p1674
sbsg49
g42
(g43
g44
F-1.7077880825226979
tRp1675
(dp1676
g47
I01
sg2
S'SR:C13-MG:G06B{Quad:H3}Fld-I'
p1677
sbsg53
VQH3G6C13B
p1678
sg55
VQH3G6C13B
p1679
sg57
g58
sg2
VQH3G6C13B.value
p1680
sg60
(lp1681
S'SR:C13-MG:G06B{Quad:H3}Fld-I'
p1682
asg63
Nsg64
VC13
p1683
sg66
F0.27500000000000002
sg67
F362.19300000000004
sg68
F362.46800000000002
sba(iaphla.gui.TunerUtils.knob
Knob
p1684
(dp1685
g21
VA
sg22
g23
sg24
I1534
sg25
(lp1686
VQUAD
p1687
aVC14
p1688
aVG2
p1689
aVA
asg30
VQUAD
p1690
sg32
Nsg33
I0
sg34
S''
sg35
(lp1691
S'SR:C14-MG:G02A{Quad:H3}Fld-SP'
p1692
asg38
F0
sg39
VG2
p1693
sg41
g42
(g43
g44
F-1.7075499999999999
tRp1694
(dp1695
g47
I01
sg2
S'SR:C14-MG:G02A{Quad:H3}Fld-SP'
p1696
sbsg49
g42
(g43
g44
F-1.7067397377565423
tRp1697
(dp1698
g47
I01
sg2
S'SR:C14-MG:G02A{Quad:H3}Fld-I'
p1699
sbsg53
VQH3G2C14A
p1700
sg55
VQH3G2C14A
p1701
sg57
g58
sg2
VQH3G2C14A.value
p1702
sg60
(lp1703
S'SR:C14-MG:G02A{Quad:H3}Fld-I'
p1704
asg63
Nsg64
VC14
p1705
sg66
F0.27500000000000002
sg67
F376.69300000000004
sg68
F376.96800000000002
sba(iaphla.gui.TunerUtils.knob
Knob
p1706
(dp1707
g21
VB
sg22
g23
sg24
I1707
sg25
(lp1708
VQUAD
p1709
aVC15
p1710
aVG6
p1711
aVB
asg30
VQUAD
p1712
sg32
Nsg33
I0
sg34
S''
sg35
(lp1713
S'SR:C15-MG:G06B{Quad:H3}Fld-SP'
p1714
asg38
F0
sg39
VG6
p1715
sg41
g42
(g43
g44
F-1.7075499999999999
tRp1716
(dp1717
g47
I01
sg2
S'SR:C15-MG:G06B{Quad:H3}Fld-SP'
p1718
sbsg49
g42
(g43
g44
F-1.7083551032459756
tRp1719
(dp1720
g47
I01
sg2
S'SR:C15-MG:G06B{Quad:H3}Fld-I'
p1721
sbsg53
VQH3G6C15B
p1722
sg55
VQH3G6C15B
p1723
sg57
g58
sg2
VQH3G6C15B.value
p1724
sg60
(lp1725
S'SR:C15-MG:G06B{Quad:H3}Fld-I'
p1726
asg63
Nsg64
VC15
p1727
sg66
F0.27500000000000002
sg67
F414.99000000000001
sg68
F415.26499999999999
sba(iaphla.gui.TunerUtils.knob
Knob
p1728
(dp1729
g21
VA
sg22
g23
sg24
I1750
sg25
(lp1730
VQUAD
p1731
aVC16
p1732
aVG2
p1733
aVA
asg30
VQUAD
p1734
sg32
Nsg33
I0
sg34
S''
sg35
(lp1735
S'SR:C16-MG:G02A{Quad:H3}Fld-SP'
p1736
asg38
F0
sg39
VG2
p1737
sg41
g42
(g43
g44
F-1.7075499999999999
tRp1738
(dp1739
g47
I01
sg2
S'SR:C16-MG:G02A{Quad:H3}Fld-SP'
p1740
sbsg49
g42
(g43
g44
F-1.7083621121869994
tRp1741
(dp1742
g47
I01
sg2
S'SR:C16-MG:G02A{Quad:H3}Fld-I'
p1743
sbsg53
VQH3G2C16A
p1744
sg55
VQH3G2C16A
p1745
sg57
g58
sg2
VQH3G2C16A.value
p1746
sg60
(lp1747
S'SR:C16-MG:G02A{Quad:H3}Fld-I'
p1748
asg63
Nsg64
VC16
p1749
sg66
F0.27500000000000002
sg67
F429.49000000000001
sg68
F429.76499999999999
sba(iaphla.gui.TunerUtils.knob
Knob
p1750
(dp1751
g21
VB
sg22
g23
sg24
I1923
sg25
(lp1752
VQUAD
p1753
aVC17
p1754
aVG6
p1755
aVB
asg30
VQUAD
p1756
sg32
Nsg33
I0
sg34
S''
sg35
(lp1757
S'SR:C17-MG:G06B{Quad:H3}Fld-SP'
p1758
asg38
F0
sg39
VG6
p1759
sg41
g42
(g43
g44
F-1.7075499999999999
tRp1760
(dp1761
g47
I01
sg2
S'SR:C17-MG:G06B{Quad:H3}Fld-SP'
p1762
sbsg49
g42
(g43
g44
F-1.7078194533962769
tRp1763
(dp1764
g47
I01
sg2
S'SR:C17-MG:G06B{Quad:H3}Fld-I'
p1765
sbsg53
VQH3G6C17B
p1766
sg55
VQH3G6C17B
p1767
sg57
g58
sg2
VQH3G6C17B.value
p1768
sg60
(lp1769
S'SR:C17-MG:G06B{Quad:H3}Fld-I'
p1770
asg63
Nsg64
VC17
p1771
sg66
F0.27500000000000002
sg67
F467.78700000000003
sg68
F468.06200000000001
sba(iaphla.gui.TunerUtils.knob
Knob
p1772
(dp1773
g21
VA
sg22
g23
sg24
I1966
sg25
(lp1774
VQUAD
p1775
aVC18
p1776
aVG2
p1777
aVA
asg30
VQUAD
p1778
sg32
Nsg33
I0
sg34
S''
sg35
(lp1779
S'SR:C18-MG:G02A{Quad:H3}Fld-SP'
p1780
asg38
F0
sg39
VG2
p1781
sg41
g42
(g43
g44
F-1.7075499999999999
tRp1782
(dp1783
g47
I01
sg2
S'SR:C18-MG:G02A{Quad:H3}Fld-SP'
p1784
sbsg49
g42
(g43
g44
F-1.7073560034557869
tRp1785
(dp1786
g47
I01
sg2
S'SR:C18-MG:G02A{Quad:H3}Fld-I'
p1787
sbsg53
VQH3G2C18A
p1788
sg55
VQH3G2C18A
p1789
sg57
g58
sg2
VQH3G2C18A.value
p1790
sg60
(lp1791
S'SR:C18-MG:G02A{Quad:H3}Fld-I'
p1792
asg63
Nsg64
VC18
p1793
sg66
F0.27500000000000002
sg67
F482.28700000000003
sg68
F482.56200000000001
sba(iaphla.gui.TunerUtils.knob
Knob
p1794
(dp1795
g21
VB
sg22
g23
sg24
I2139
sg25
(lp1796
VQUAD
p1797
aVC19
p1798
aVG6
p1799
aVB
asg30
VQUAD
p1800
sg32
Nsg33
I0
sg34
S''
sg35
(lp1801
S'SR:C19-MG:G06B{Quad:H3}Fld-SP'
p1802
asg38
F0
sg39
VG6
p1803
sg41
g42
(g43
g44
F-1.7075499999999999
tRp1804
(dp1805
g47
I01
sg2
S'SR:C19-MG:G06B{Quad:H3}Fld-SP'
p1806
sbsg49
g42
(g43
g44
F-1.7076519162558172
tRp1807
(dp1808
g47
I01
sg2
S'SR:C19-MG:G06B{Quad:H3}Fld-I'
p1809
sbsg53
VQH3G6C19B
p1810
sg55
VQH3G6C19B
p1811
sg57
g58
sg2
VQH3G6C19B.value
p1812
sg60
(lp1813
S'SR:C19-MG:G06B{Quad:H3}Fld-I'
p1814
asg63
Nsg64
VC19
p1815
sg66
F0.27500000000000002
sg67
F520.58400000000006
sg68
F520.85900000000004
sba(iaphla.gui.TunerUtils.knob
Knob
p1816
(dp1817
g21
VA
sg22
g23
sg24
I2182
sg25
(lp1818
VQUAD
p1819
aVC20
p1820
aVG2
p1821
aVA
asg30
VQUAD
p1822
sg32
Nsg33
I0
sg34
S''
sg35
(lp1823
S'SR:C20-MG:G02A{Quad:H3}Fld-SP'
p1824
asg38
F0
sg39
VG2
p1825
sg41
g42
(g43
g44
F-1.7075499999999999
tRp1826
(dp1827
g47
I01
sg2
S'SR:C20-MG:G02A{Quad:H3}Fld-SP'
p1828
sbsg49
g42
(g43
g44
F-1.7079536654974441
tRp1829
(dp1830
g47
I01
sg2
S'SR:C20-MG:G02A{Quad:H3}Fld-I'
p1831
sbsg53
VQH3G2C20A
p1832
sg55
VQH3G2C20A
p1833
sg57
g58
sg2
VQH3G2C20A.value
p1834
sg60
(lp1835
S'SR:C20-MG:G02A{Quad:H3}Fld-I'
p1836
asg63
Nsg64
VC20
p1837
sg66
F0.27500000000000002
sg67
F535.08500000000004
sg68
F535.36000000000001
sba(iaphla.gui.TunerUtils.knob
Knob
p1838
(dp1839
g21
VB
sg22
g23
sg24
I2355
sg25
(lp1840
VQUAD
p1841
aVC21
p1842
aVG6
p1843
aVB
asg30
VQUAD
p1844
sg32
Nsg33
I0
sg34
S''
sg35
(lp1845
S'SR:C21-MG:G06B{Quad:H3}Fld-SP'
p1846
asg38
F0
sg39
VG6
p1847
sg41
g42
(g43
g44
F-1.7075499999999999
tRp1848
(dp1849
g47
I01
sg2
S'SR:C21-MG:G06B{Quad:H3}Fld-SP'
p1850
sbsg49
g42
(g43
g44
F-1.7081226356927595
tRp1851
(dp1852
g47
I01
sg2
S'SR:C21-MG:G06B{Quad:H3}Fld-I'
p1853
sbsg53
VQH3G6C21B
p1854
sg55
VQH3G6C21B
p1855
sg57
g58
sg2
VQH3G6C21B.value
p1856
sg60
(lp1857
S'SR:C21-MG:G06B{Quad:H3}Fld-I'
p1858
asg63
Nsg64
VC21
p1859
sg66
F0.27500000000000002
sg67
F573.38200000000006
sg68
F573.65700000000004
sba(iaphla.gui.TunerUtils.knob
Knob
p1860
(dp1861
g21
VA
sg22
g23
sg24
I2398
sg25
(lp1862
VQUAD
p1863
aVC22
p1864
aVG2
p1865
aVA
asg30
VQUAD
p1866
sg32
Nsg33
I0
sg34
S''
sg35
(lp1867
S'SR:C22-MG:G02A{Quad:H3}Fld-SP'
p1868
asg38
F0
sg39
VG2
p1869
sg41
g42
(g43
g44
F-1.7075499999999999
tRp1870
(dp1871
g47
I01
sg2
S'SR:C22-MG:G02A{Quad:H3}Fld-SP'
p1872
sbsg49
g42
(g43
g44
F-1.7068900261276416
tRp1873
(dp1874
g47
I01
sg2
S'SR:C22-MG:G02A{Quad:H3}Fld-I'
p1875
sbsg53
VQH3G2C22A
p1876
sg55
VQH3G2C22A
p1877
sg57
g58
sg2
VQH3G2C22A.value
p1878
sg60
(lp1879
S'SR:C22-MG:G02A{Quad:H3}Fld-I'
p1880
asg63
Nsg64
VC22
p1881
sg66
F0.27500000000000002
sg67
F587.88200000000006
sg68
F588.15700000000004
sba(iaphla.gui.TunerUtils.knob
Knob
p1882
(dp1883
g21
VB
sg22
g23
sg24
I2571
sg25
(lp1884
VQUAD
p1885
aVC23
p1886
aVG6
p1887
aVB
asg30
VQUAD
p1888
sg32
Nsg33
I0
sg34
S''
sg35
(lp1889
S'SR:C23-MG:G06B{Quad:H3}Fld-SP'
p1890
asg38
F0
sg39
VG6
p1891
sg41
g42
(g43
g44
F-1.7075499999999999
tRp1892
(dp1893
g47
I01
sg2
S'SR:C23-MG:G06B{Quad:H3}Fld-SP'
p1894
sbsg49
g42
(g43
g44
F-1.7068069871126115
tRp1895
(dp1896
g47
I01
sg2
S'SR:C23-MG:G06B{Quad:H3}Fld-I'
p1897
sbsg53
VQH3G6C23B
p1898
sg55
VQH3G6C23B
p1899
sg57
g58
sg2
VQH3G6C23B.value
p1900
sg60
(lp1901
S'SR:C23-MG:G06B{Quad:H3}Fld-I'
p1902
asg63
Nsg64
VC23
p1903
sg66
F0.27500000000000002
sg67
F626.17899999999997
sg68
F626.45399999999995
sba(iaphla.gui.TunerUtils.knob
Knob
p1904
(dp1905
g21
VA
sg22
g23
sg24
I2614
sg25
(lp1906
VQUAD
p1907
aVC24
p1908
aVG2
p1909
aVA
asg30
VQUAD
p1910
sg32
Nsg33
I0
sg34
S''
sg35
(lp1911
S'SR:C24-MG:G02A{Quad:H3}Fld-SP'
p1912
asg38
F0
sg39
VG2
p1913
sg41
g42
(g43
g44
F-1.7075499999999999
tRp1914
(dp1915
g47
I01
sg2
S'SR:C24-MG:G02A{Quad:H3}Fld-SP'
p1916
sbsg49
g42
(g43
g44
F-1.7081305305222401
tRp1917
(dp1918
g47
I01
sg2
S'SR:C24-MG:G02A{Quad:H3}Fld-I'
p1919
sbsg53
VQH3G2C24A
p1920
sg55
VQH3G2C24A
p1921
sg57
g58
sg2
VQH3G2C24A.value
p1922
sg60
(lp1923
S'SR:C24-MG:G02A{Quad:H3}Fld-I'
p1924
asg63
Nsg64
VC24
p1925
sg66
F0.27500000000000002
sg67
F640.67899999999997
sg68
F640.95399999999995
sba(iaphla.gui.TunerUtils.knob
Knob
p1926
(dp1927
g21
VB
sg22
g23
sg24
I2787
sg25
(lp1928
VQUAD
p1929
aVC25
p1930
aVG6
p1931
aVB
asg30
VQUAD
p1932
sg32
Nsg33
I0
sg34
S''
sg35
(lp1933
S'SR:C25-MG:G06B{Quad:H3}Fld-SP'
p1934
asg38
F0
sg39
VG6
p1935
sg41
g42
(g43
g44
F-1.7075499999999999
tRp1936
(dp1937
g47
I01
sg2
S'SR:C25-MG:G06B{Quad:H3}Fld-SP'
p1938
sbsg49
g42
(g43
g44
F-1.7073369047428855
tRp1939
(dp1940
g47
I01
sg2
S'SR:C25-MG:G06B{Quad:H3}Fld-I'
p1941
sbsg53
VQH3G6C25B
p1942
sg55
VQH3G6C25B
p1943
sg57
g58
sg2
VQH3G6C25B.value
p1944
sg60
(lp1945
S'SR:C25-MG:G06B{Quad:H3}Fld-I'
p1946
asg63
Nsg64
VC25
p1947
sg66
F0.27500000000000002
sg67
F678.976
sg68
F679.25099999999998
sba(iaphla.gui.TunerUtils.knob
Knob
p1948
(dp1949
g21
VA
sg22
g23
sg24
I2830
sg25
(lp1950
VQUAD
p1951
aVC26
p1952
aVG2
p1953
aVA
asg30
VQUAD
p1954
sg32
Nsg33
I0
sg34
S''
sg35
(lp1955
S'SR:C26-MG:G02A{Quad:H3}Fld-SP'
p1956
asg38
F0
sg39
VG2
p1957
sg41
g42
(g43
g44
F-1.7075499999999999
tRp1958
(dp1959
g47
I01
sg2
S'SR:C26-MG:G02A{Quad:H3}Fld-SP'
p1960
sbsg49
g42
(g43
g44
F-1.7068626156965743
tRp1961
(dp1962
g47
I01
sg2
S'SR:C26-MG:G02A{Quad:H3}Fld-I'
p1963
sbsg53
VQH3G2C26A
p1964
sg55
VQH3G2C26A
p1965
sg57
g58
sg2
VQH3G2C26A.value
p1966
sg60
(lp1967
S'SR:C26-MG:G02A{Quad:H3}Fld-I'
p1968
asg63
Nsg64
VC26
p1969
sg66
F0.27500000000000002
sg67
F693.476
sg68
F693.75099999999998
sba(iaphla.gui.TunerUtils.knob
Knob
p1970
(dp1971
g21
VB
sg22
g23
sg24
I3003
sg25
(lp1972
VQUAD
p1973
aVC27
p1974
aVG6
p1975
aVB
asg30
VQUAD
p1976
sg32
Nsg33
I0
sg34
S''
sg35
(lp1977
S'SR:C27-MG:G06B{Quad:H3}Fld-SP'
p1978
asg38
F0
sg39
VG6
p1979
sg41
g42
(g43
g44
F-1.7075499999999999
tRp1980
(dp1981
g47
I01
sg2
S'SR:C27-MG:G06B{Quad:H3}Fld-SP'
p1982
sbsg49
g42
(g43
g44
F-1.7076612962512399
tRp1983
(dp1984
g47
I01
sg2
S'SR:C27-MG:G06B{Quad:H3}Fld-I'
p1985
sbsg53
VQH3G6C27B
p1986
sg55
VQH3G6C27B
p1987
sg57
g58
sg2
VQH3G6C27B.value
p1988
sg60
(lp1989
S'SR:C27-MG:G06B{Quad:H3}Fld-I'
p1990
asg63
Nsg64
VC27
p1991
sg66
F0.27500000000000002
sg67
F731.77300000000002
sg68
F732.048
sba(iaphla.gui.TunerUtils.knob
Knob
p1992
(dp1993
g21
VA
sg22
g23
sg24
I3046
sg25
(lp1994
VQUAD
p1995
aVC28
p1996
aVG2
p1997
aVA
asg30
VQUAD
p1998
sg32
Nsg33
I0
sg34
S''
sg35
(lp1999
S'SR:C28-MG:G02A{Quad:H3}Fld-SP'
p2000
asg38
F0
sg39
VG2
p2001
sg41
g42
(g43
g44
F-1.7075499999999999
tRp2002
(dp2003
g47
I01
sg2
S'SR:C28-MG:G02A{Quad:H3}Fld-SP'
p2004
sbsg49
g42
(g43
g44
F-1.7076387060955975
tRp2005
(dp2006
g47
I01
sg2
S'SR:C28-MG:G02A{Quad:H3}Fld-I'
p2007
sbsg53
VQH3G2C28A
p2008
sg55
VQH3G2C28A
p2009
sg57
g58
sg2
VQH3G2C28A.value
p2010
sg60
(lp2011
S'SR:C28-MG:G02A{Quad:H3}Fld-I'
p2012
asg63
Nsg64
VC28
p2013
sg66
F0.27500000000000002
sg67
F746.27300000000002
sg68
F746.548
sba(iaphla.gui.TunerUtils.knob
Knob
p2014
(dp2015
g21
VB
sg22
g23
sg24
I3223
sg25
(lp2016
VQUAD
p2017
aVC29
p2018
aVG6
p2019
aVB
asg30
VQUAD
p2020
sg32
Nsg33
I0
sg34
S''
sg35
(lp2021
S'SR:C29-MG:G06B{Quad:H3}Fld-SP'
p2022
asg38
F0
sg39
VG6
p2023
sg41
g42
(g43
g44
F-1.7075499999999999
tRp2024
(dp2025
g47
I01
sg2
S'SR:C29-MG:G06B{Quad:H3}Fld-SP'
p2026
sbsg49
g42
(g43
g44
F-1.7075916497852293
tRp2027
(dp2028
g47
I01
sg2
S'SR:C29-MG:G06B{Quad:H3}Fld-I'
p2029
sbsg53
VQH3G6C29B
p2030
sg55
VQH3G6C29B
p2031
sg57
g58
sg2
VQH3G6C29B.value
p2032
sg60
(lp2033
S'SR:C29-MG:G06B{Quad:H3}Fld-I'
p2034
asg63
Nsg64
VC29
p2035
sg66
F0.27500000000000002
sg67
F784.57100000000003
sg68
F784.846
sbasg2
S'QH3'
p2036
sg708
F2
sbasS'refStepSize'
p2037
F0.0060000000000000001
sS'weight_list'
p2038
(lp2039
F1
aF-3.4173
aF2
asS'ref_index'
p2040
I2
sS'normalized_weight_list'
p2041
(lp2042
F0.5
aF-1.70865
aF1
asS'step_size_list'
p2043
(lp2044
F0.0030000000000000001
aF-0.0102519
aF0.0060000000000000001
asbsS'preferences'
p2045
(dp2046
g7
F1333033910.991426
sg5
g6
sS'TunerGUI'
p2047
(dp2048
S'visible_column_name_list'
p2049
(lp2050
S'Group Name'
p2051
aS'Knob Name'
p2052
aS'Reading'
p2053
aS'Setpoint'
p2054
aS'Weight'
p2055
aS'Step Size'
p2056
aS'Start Read'
p2057
aS'Start Setp'
p2058
asss.