(dp1
S'snapshot_read_timestamp'
p2
(lp3
NaNaNaNaNaNaNaNaNaNaNaNaNaNaNaNasS'version'
p4
S'0.1.0'
p5
sS'snapshot_setp_timestamp'
p6
(lp7
NaNaNaNaNaNaNaNaNaNaNaNaNaNaNaNasS'snapshot_read'
p8
(lp9
ccopy_reg
_reconstructor
p10
(ccothread.dbr
ca_float
p11
c__builtin__
float
p12
F3.3880442874828624e-21
tRp13
(dp14
S'ok'
p15
I01
sS'name'
p16
S'SR:C30-MG:G02A{VCor:H}Fld-I'
p17
sbag10
(g11
g12
F4.2334292137785604e-21
tRp18
(dp19
g15
I01
sg16
S'SR:C30-MG:G02A{VCor:H2}Fld-I'
p20
sbag10
(g11
g12
F1.1858274794110292e-20
tRp21
(dp22
g15
I01
sg16
S'SR:C30-MG:G04A{VCor:M1}Fld-I'
p23
sbag10
(g11
g12
F0
tRp24
(dp25
g15
I01
sg16
S'SR:C30-MG:G04B{VCor:M1}Fld-I'
p26
sbag10
(g11
g12
F0
tRp27
(dp28
g15
I01
sg16
S'SR:C30-MG:G06B{VCor:L2}Fld-I'
p29
sbag10
(g11
g12
F0
tRp30
(dp31
g15
I01
sg16
S'SR:C30-MG:G06B{VCor:L1}Fld-I'
p32
sbag10
(g11
g12
F0
tRp33
(dp34
g15
I01
sg16
S'SR:C01-MG:G02A{VCor:L1}Fld-I'
p35
sbag10
(g11
g12
F0
tRp36
(dp37
g15
I01
sg16
S'SR:C01-MG:G02A{VCor:L2}Fld-I'
p38
sbag10
(g11
g12
F1.0584679890081106e-21
tRp39
(dp40
g15
I01
sg16
S'SR:C01-MG:G04A{VCor:M}Fld-I'
p41
sbag10
(g11
g12
F0
tRp42
(dp43
g15
I01
sg16
S'SR:C01-MG:G04B{VCor:M1}Fld-I'
p44
sbag10
(g11
g12
F0
tRp45
(dp46
g15
I01
sg16
S'SR:C01-MG:G06B{VCor:H2}Fld-I'
p47
sbag10
(g11
g12
F1.3229031289584574e-22
tRp48
(dp49
g15
I01
sg16
S'SR:C29-MG:G02A{VCor:L2}Fld-I'
p50
sbag10
(g11
g12
F0
tRp51
(dp52
g15
I01
sg16
S'SR:C29-MG:G04A{VCor:M}Fld-I'
p53
sbag10
(g11
g12
F-6.6153668702521264e-23
tRp54
(dp55
g15
I01
sg16
S'SR:C29-MG:G04B{VCor:M1}Fld-I'
p56
sbag10
(g11
g12
F0
tRp57
(dp58
g15
I01
sg16
S'SR:C29-MG:G06B{VCor:H2}Fld-I'
p59
sbag10
(g11
g12
F-2.6479703699044923e-22
tRp60
(dp61
g15
I01
sg16
S'SR:C29-MG:G06B{VCor:H1}Fld-I'
p62
sbasS'flat_knob_list'
p63
(lp64
(iTunerUtils.knob
Knob
p65
(dp66
S'symmetry'
p67
VA
sS'sequence'
p68
(I0
I0
tp69
sS'index'
p70
I16
sS'group'
p71
(lp72
VVCOR
p73
aVC30
p74
aVG2
p75
aVA
asS'family'
p76
VVCOR
p77
sS'pvrb_val_time_stamp'
p78
NsS'virtual'
p79
I0
sS'pv_unit'
p80
S''
sS'pvsp'
p81
(lp82
S'SR:C30-MG:G02A{VCor:H}Fld-SP'
p83
asS'phylen'
p84
F0
sS'girder'
p85
VG2
p86
sS'pvsp_val'
p87
g10
(g11
g12
F3.3881317890172014e-21
tRp88
(dp89
g15
I01
sg16
S'SR:C30-MG:G02A{VCor:H}Fld-SP'
p90
sbsS'pvrb_val'
p91
g13
sS'devname'
p92
VSQHG2C30A
p93
sS'elem_name'
p94
VCYHG2C30A
p95
sS'field_name'
p96
Vy
sg16
VCYHG2C30A.y
p97
sS'pvrb'
p98
(lp99
S'SR:C30-MG:G02A{VCor:H}Fld-I'
p100
asS'pvsp_val_time_stamp'
p101
NsS'cell'
p102
VC30
p103
sS'length'
p104
F0.20000000000000001
sS'sb'
p105
F5.4325000000000001
sS'se'
p106
F5.6325000000000003
sba(iTunerUtils.knob
Knob
p107
(dp108
g67
VA
sg68
g69
sg70
I30
sg71
(lp109
VVCOR
p110
aVC30
p111
aVG2
p112
aVA
asg76
VVCOR
p113
sg78
Nsg79
I0
sg80
S''
sg81
(lp114
S'SR:C30-MG:G02A{VCor:H2}Fld-SP'
p115
asg84
F0
sg85
VG2
p116
sg87
g10
(g11
g12
F4.2351647362715017e-21
tRp117
(dp118
g15
I01
sg16
S'SR:C30-MG:G02A{VCor:H2}Fld-SP'
p119
sbsg91
g18
sg92
VCH2G2C30A
p120
sg94
VCYH2G2C30A
p121
sg96
Vy
sg16
VCYH2G2C30A.y
p122
sg98
(lp123
S'SR:C30-MG:G02A{VCor:H2}Fld-I'
p124
asg101
Nsg102
VC30
p125
sg104
F0.29999999999999999
sg105
F7.9985000000000008
sg106
F8.2985000000000007
sba(iTunerUtils.knob
Knob
p126
(dp127
g67
VA
sg68
g69
sg70
I40
sg71
(lp128
VVCOR
p129
aVC30
p130
aVG4
p131
aVA
asg76
VVCOR
p132
sg78
Nsg79
I0
sg80
S''
sg81
(lp133
S'SR:C30-MG:G04A{VCor:M1}Fld-SP'
p134
asg84
F0
sg85
VG4
p135
sg87
g10
(g11
g12
F1.1858461261560205e-20
tRp136
(dp137
g15
I01
sg16
S'SR:C30-MG:G04A{VCor:M1}Fld-SP'
p138
sbsg91
g21
sg92
VCM1G4C30A
p139
sg94
VCYM1G4C30A
p140
sg96
Vy
sg16
VCYM1G4C30A.y
p141
sg98
(lp142
S'SR:C30-MG:G04A{VCor:M1}Fld-I'
p143
asg101
Nsg102
VC30
p144
sg104
F0.20000000000000001
sg105
F11.365
sg106
F11.565
sba(iTunerUtils.knob
Knob
p145
(dp146
g67
VB
sg68
g69
sg70
I66
sg71
(lp147
VVCOR
p148
aVC30
p149
aVG4
p150
aVB
asg76
VVCOR
p151
sg78
Nsg79
I0
sg80
S''
sg81
(lp152
S'SR:C30-MG:G04B{VCor:M1}Fld-SP'
p153
asg84
F0
sg85
VG4
p154
sg87
g10
(g11
g12
F0
tRp155
(dp156
g15
I01
sg16
S'SR:C30-MG:G04B{VCor:M1}Fld-SP'
p157
sbsg91
g24
sg92
VCM1G4C30B
p158
sg94
VCYM1G4C30B
p159
sg96
Vy
sg16
VCYM1G4C30B.y
p160
sg98
(lp161
S'SR:C30-MG:G04B{VCor:M1}Fld-I'
p162
asg101
Nsg102
VC30
p163
sg104
F0.29999999999999999
sg105
F15.823999999999998
sg106
F16.123999999999999
sba(iTunerUtils.knob
Knob
p164
(dp165
g67
VB
sg68
g69
sg70
I85
sg71
(lp166
VVCOR
p167
aVC30
p168
aVG6
p169
aVB
asg76
VVCOR
p170
sg78
Nsg79
I0
sg80
S''
sg81
(lp171
S'SR:C30-MG:G06B{VCor:L2}Fld-SP'
p172
asg84
F0
sg85
VG6
p173
sg87
g10
(g11
g12
F0
tRp174
(dp175
g15
I01
sg16
S'SR:C30-MG:G06B{VCor:L2}Fld-SP'
p176
sbsg91
g27
sg92
VCL2G6C30B
p177
sg94
VCYL2G6C30B
p178
sg96
Vy
sg16
VCYL2G6C30B.y
p179
sg98
(lp180
S'SR:C30-MG:G06B{VCor:L2}Fld-I'
p181
asg101
Nsg102
VC30
p182
sg104
F0.20000000000000001
sg105
F20.692499999999999
sg106
F20.892499999999998
sba(iTunerUtils.knob
Knob
p183
(dp184
g67
VB
sg68
g69
sg70
I93
sg71
(lp185
VVCOR
p186
aVC30
p187
aVG6
p188
aVB
asg76
VVCOR
p189
sg78
Nsg79
I0
sg80
S''
sg81
(lp190
S'SR:C30-MG:G06B{VCor:L1}Fld-SP'
p191
asg84
F0
sg85
VG6
p192
sg87
g10
(g11
g12
F0
tRp193
(dp194
g15
I01
sg16
S'SR:C30-MG:G06B{VCor:L1}Fld-SP'
p195
sbsg91
g30
sg92
VCL1G6C30B
p196
sg94
VCYL1G6C30B
p197
sg96
Vy
sg16
VCYL1G6C30B.y
p198
sg98
(lp199
S'SR:C30-MG:G06B{VCor:L1}Fld-I'
p200
asg101
Nsg102
VC30
p201
sg104
F0.20000000000000001
sg105
F22.129899999999999
sg106
F22.329899999999999
sba(iTunerUtils.knob
Knob
p202
(dp203
g67
VA
sg68
g69
sg70
I126
sg71
(lp204
VVCOR
p205
aVC01
p206
aVG2
p207
aVA
asg76
VVCOR
p208
sg78
Nsg79
I0
sg80
S''
sg81
(lp209
S'SR:C01-MG:G02A{VCor:L1}Fld-SP'
p210
asg84
F0
sg85
VG2
p211
sg87
g10
(g11
g12
F0
tRp212
(dp213
g15
I01
sg16
S'SR:C01-MG:G02A{VCor:L1}Fld-SP'
p214
sbsg91
g33
sg92
VCL1G2C01A
p215
sg94
VCYL1G2C01A
p216
sg96
Vy
sg16
VCYL1G2C01A.y
p217
sg98
(lp218
S'SR:C01-MG:G02A{VCor:L1}Fld-I'
p219
asg101
Nsg102
VC01
p220
sg104
F0.20000000000000001
sg105
F30.467300000000002
sg106
F30.667300000000001
sba(iTunerUtils.knob
Knob
p221
(dp222
g67
VA
sg68
g69
sg70
I134
sg71
(lp223
VVCOR
p224
aVC01
p225
aVG2
p226
aVA
asg76
VVCOR
p227
sg78
Nsg79
I0
sg80
S''
sg81
(lp228
S'SR:C01-MG:G02A{VCor:L2}Fld-SP'
p229
asg84
F0
sg85
VG2
p230
sg87
g10
(g11
g12
F0
tRp231
(dp232
g15
I01
sg16
S'SR:C01-MG:G02A{VCor:L2}Fld-SP'
p233
sbsg91
g36
sg92
VCL2G2C01A
p234
sg94
VCYL2G2C01A
p235
sg96
Vy
sg16
VCYL2G2C01A.y
p236
sg98
(lp237
S'SR:C01-MG:G02A{VCor:L2}Fld-I'
p238
asg101
Nsg102
VC01
p239
sg104
F0.20000000000000001
sg105
F31.904700000000002
sg106
F32.104700000000001
sba(iTunerUtils.knob
Knob
p240
(dp241
g67
VA
sg68
g69
sg70
I151
sg71
(lp242
VVCOR
p243
aVC01
p244
aVG4
p245
aVA
asg76
VVCOR
p246
sg78
Nsg79
I0
sg80
S''
sg81
(lp247
S'SR:C01-MG:G04A{VCor:M}Fld-SP'
p248
asg84
F0
sg85
VG4
p249
sg87
g10
(g11
g12
F1.0587911840678754e-21
tRp250
(dp251
g15
I01
sg16
S'SR:C01-MG:G04A{VCor:M}Fld-SP'
p252
sbsg91
g39
sg92
VSQMG4C01A
p253
sg94
VCYMG4C01A
p254
sg96
Vy
sg16
VCYMG4C01A.y
p255
sg98
(lp256
S'SR:C01-MG:G04A{VCor:M}Fld-I'
p257
asg101
Nsg102
VC01
p258
sg104
F0.20000000000000001
sg105
F36.522199999999998
sg106
F36.722200000000001
sba(iTunerUtils.knob
Knob
p259
(dp260
g67
VB
sg68
g69
sg70
I177
sg71
(lp261
VVCOR
p262
aVC01
p263
aVG4
p264
aVB
asg76
VVCOR
p265
sg78
Nsg79
I0
sg80
S''
sg81
(lp266
S'SR:C01-MG:G04B{VCor:M1}Fld-SP'
p267
asg84
F0
sg85
VG4
p268
sg87
g10
(g11
g12
F0
tRp269
(dp270
g15
I01
sg16
S'SR:C01-MG:G04B{VCor:M1}Fld-SP'
p271
sbsg91
g42
sg92
VCM1G4C01B
p272
sg94
VCYM1G4C01B
p273
sg96
Vy
sg16
VCYM1G4C01B.y
p274
sg98
(lp275
S'SR:C01-MG:G04B{VCor:M1}Fld-I'
p276
asg101
Nsg102
VC01
p277
sg104
F0.29999999999999999
sg105
F40.981200000000001
sg106
F41.281199999999998
sba(iTunerUtils.knob
Knob
p278
(dp279
g67
VB
sg68
g69
sg70
I189
sg71
(lp280
VVCOR
p281
aVC01
p282
aVG6
p283
aVB
asg76
VVCOR
p284
sg78
Nsg79
I0
sg80
S''
sg81
(lp285
S'SR:C01-MG:G06B{VCor:H2}Fld-SP'
p286
asg84
F0
sg85
VG6
p287
sg87
g10
(g11
g12
F0
tRp288
(dp289
g15
I01
sg16
S'SR:C01-MG:G06B{VCor:H2}Fld-SP'
p290
sbsg91
g45
sg92
VCH2G6C01B
p291
sg94
VCYH2G6C01B
p292
sg96
Vy
sg16
VCYH2G6C01B.y
p293
sg98
(lp294
S'SR:C01-MG:G06B{VCor:H2}Fld-I'
p295
asg101
Nsg102
VC01
p296
sg104
F0.29999999999999999
sg105
F44.683500000000002
sg106
F44.983499999999999
sba(iTunerUtils.knob
Knob
p297
(dp298
g67
VA
sg68
g69
sg70
I3158
sg71
(lp299
VVCOR
p300
aVC29
p301
aVG2
p302
aVA
asg76
VVCOR
p303
sg78
Nsg79
I0
sg80
S''
sg81
(lp304
S'SR:C29-MG:G02A{VCor:L2}Fld-SP'
p305
asg84
F0
sg85
VG2
p306
sg87
g10
(g11
g12
F1.3234889800848443e-22
tRp307
(dp308
g15
I01
sg16
S'SR:C29-MG:G02A{VCor:L2}Fld-SP'
p309
sbsg91
g48
sg92
VCL2G2C29A
p310
sg94
VCYL2G2C29A
p311
sg96
Vy
sg16
VCYL2G2C29A.y
p312
sg98
(lp313
S'SR:C29-MG:G02A{VCor:L2}Fld-I'
p314
asg101
Nsg102
VC29
p315
sg104
F0.20000000000000001
sg105
F771.06599999999992
sg106
F771.26599999999996
sba(iTunerUtils.knob
Knob
p316
(dp317
g67
VA
sg68
g69
sg70
I3176
sg71
(lp318
VVCOR
p319
aVC29
p320
aVG4
p321
aVA
asg76
VVCOR
p322
sg78
Nsg79
I0
sg80
S''
sg81
(lp323
S'SR:C29-MG:G04A{VCor:M}Fld-SP'
p324
asg84
F0
sg85
VG4
p325
sg87
g10
(g11
g12
F0
tRp326
(dp327
g15
I01
sg16
S'SR:C29-MG:G04A{VCor:M}Fld-SP'
p328
sbsg91
g51
sg92
VSQMG4C29A
p329
sg94
VCYMG4C29A
p330
sg96
Vy
sg16
VCYMG4C29A.y
p331
sg98
(lp332
S'SR:C29-MG:G04A{VCor:M}Fld-I'
p333
asg101
Nsg102
VC29
p334
sg104
F0.20000000000000001
sg105
F775.68299999999999
sg106
F775.88300000000004
sba(iTunerUtils.knob
Knob
p335
(dp336
g67
VB
sg68
g69
sg70
I3204
sg71
(lp337
VVCOR
p338
aVC29
p339
aVG4
p340
aVB
asg76
VVCOR
p341
sg78
Nsg79
I0
sg80
S''
sg81
(lp342
S'SR:C29-MG:G04B{VCor:M1}Fld-SP'
p343
asg84
F0
sg85
VG4
p344
sg87
g10
(g11
g12
F-6.6174449004242214e-23
tRp345
(dp346
g15
I01
sg16
S'SR:C29-MG:G04B{VCor:M1}Fld-SP'
p347
sbsg91
g54
sg92
VCM1G4C29B
p348
sg94
VCYM1G4C29B
p349
sg96
Vy
sg16
VCYM1G4C29B.y
p350
sg98
(lp351
S'SR:C29-MG:G04B{VCor:M1}Fld-I'
p352
asg101
Nsg102
VC29
p353
sg104
F0.29999999999999999
sg105
F780.14200000000005
sg106
F780.44200000000001
sba(iTunerUtils.knob
Knob
p354
(dp355
g67
VB
sg68
g69
sg70
I3217
sg71
(lp356
VVCOR
p357
aVC29
p358
aVG6
p359
aVB
asg76
VVCOR
p360
sg78
Nsg79
I0
sg80
S''
sg81
(lp361
S'SR:C29-MG:G06B{VCor:H2}Fld-SP'
p362
asg84
F0
sg85
VG6
p363
sg87
g10
(g11
g12
F0
tRp364
(dp365
g15
I01
sg16
S'SR:C29-MG:G06B{VCor:H2}Fld-SP'
p366
sbsg91
g57
sg92
VCH2G6C29B
p367
sg94
VCYH2G6C29B
p368
sg96
Vy
sg16
VCYH2G6C29B.y
p369
sg98
(lp370
S'SR:C29-MG:G06B{VCor:H2}Fld-I'
p371
asg101
Nsg102
VC29
p372
sg104
F0.29999999999999999
sg105
F783.84400000000005
sg106
F784.14400000000001
sba(iTunerUtils.knob
Knob
p373
(dp374
g67
VB
sg68
g69
sg70
I3231
sg71
(lp375
VVCOR
p376
aVC29
p377
aVG6
p378
aVB
asg76
VVCOR
p379
sg78
Nsg79
I0
sg80
S''
sg81
(lp380
S'SR:C29-MG:G06B{VCor:H1}Fld-SP'
p381
asg84
F0
sg85
VG6
p382
sg87
g10
(g11
g12
F-2.6469779601696886e-22
tRp383
(dp384
g15
I01
sg16
S'SR:C29-MG:G06B{VCor:H1}Fld-SP'
p385
sbsg91
g60
sg92
VCH1G6C29B
p386
sg94
VCYH1G6C29B
p387
sg96
Vy
sg16
VCYH1G6C29B.y
p388
sg98
(lp389
S'SR:C29-MG:G06B{VCor:H1}Fld-I'
p390
asg101
Nsg102
VC29
p391
sg104
F0.20000000000000001
sg105
F786.351
sg106
F786.55100000000004
sbasS'snapshot_description'
p392
S''
sS'time_stamp'
p393
F1320805197.2853451
sS'snapshot_setp'
p394
(lp395
g88
ag117
ag136
ag155
ag174
ag193
ag212
ag231
ag250
ag269
ag288
ag307
ag326
ag345
ag364
ag383
asS'tuner_config'
p396
(dp397
g16
csip
_unpickle_type
p398
(S'PyQt4.QtCore'
p399
S'QString'
(Vlocal bump
p400
ttRp401
sS'config_description'
p402
S''
sg4
g5
sg393
F1320805197.2853329
sS'data'
p403
(iTunerUtils.knob
KnobGroupList
p404
(dp405
S'refKnobGroupName'
p406
S'CYHG2C30A.y'
p407
sS'knobGroups'
p408
(lp409
(iTunerUtils.knob
KnobGroup
p410
(dp411
S'knobs'
p412
(lp413
g65
asg16
S'CYHG2C30A.y'
p414
sS'weight'
p415
I1
sba(iTunerUtils.knob
KnobGroup
p416
(dp417
g412
(lp418
g107
asg16
S'CYH2G2C30A.y'
p419
sg415
F-0.2270371566140118
sba(iTunerUtils.knob
KnobGroup
p420
(dp421
g412
(lp422
g126
asg16
S'CYM1G4C30A.y'
p423
sg415
F-0.6629003196784985
sba(iTunerUtils.knob
KnobGroup
p424
(dp425
g412
(lp426
g145
asg16
S'CYM1G4C30B.y'
p427
sg415
F0.29692072492196336
sba(iTunerUtils.knob
KnobGroup
p428
(dp429
g412
(lp430
g164
asg16
g179
sg415
F0.10228213880254929
sba(iTunerUtils.knob
KnobGroup
p431
(dp432
g412
(lp433
g183
asg16
g198
sg415
F0.12835973808612944
sba(iTunerUtils.knob
KnobGroup
p434
(dp435
g412
(lp436
g202
asg16
S'CYL1G2C01A.y'
p437
sg415
F0.33564958659308353
sba(iTunerUtils.knob
KnobGroup
p438
(dp439
g412
(lp440
g221
asg16
g236
sg415
F0.031421199149906244
sba(iTunerUtils.knob
KnobGroup
p441
(dp442
g412
(lp443
g240
asg16
g255
sg415
F-0.088496446534196027
sba(iTunerUtils.knob
KnobGroup
p444
(dp445
g412
(lp446
g259
asg16
g274
sg415
F0.049994957533221834
sba(iTunerUtils.knob
KnobGroup
p447
(dp448
g412
(lp449
g278
asg16
g293
sg415
F-0.019139826635022974
sba(iTunerUtils.knob
KnobGroup
p450
(dp451
g412
(lp452
g297
asg16
g312
sg415
F0.0066730796845829261
sba(iTunerUtils.knob
KnobGroup
p453
(dp454
g412
(lp455
g316
asg16
g331
sg415
F-0.0041744942547176141
sba(iTunerUtils.knob
KnobGroup
p456
(dp457
g412
(lp458
g335
asg16
g350
sg415
F-0.0050911618346463662
sba(iTunerUtils.knob
KnobGroup
p459
(dp460
g412
(lp461
g354
asg16
g369
sg415
F0.014904502050318633
sba(iTunerUtils.knob
KnobGroup
p462
(dp463
g412
(lp464
g373
asg16
g388
sg415
F-0.016647524308465195
sbasS'refStepSize'
p465
F1.0000000000000001e-05
sS'weight_list'
p466
(lp467
I1
aF-0.2270371566140118
aF-0.6629003196784985
aF0.29692072492196336
aF0.10228213880254929
aF0.12835973808612944
aF0.33564958659308353
aF0.031421199149906244
aF-0.088496446534196027
aF0.049994957533221834
aF-0.019139826635022974
aF0.0066730796845829261
aF-0.0041744942547176141
aF-0.0050911618346463662
aF0.014904502050318633
aF-0.016647524308465195
asS'ref_index'
p468
I0
sS'normalized_weight_list'
p469
(lp470
I1
aF-0.2270371566140118
aF-0.6629003196784985
aF0.29692072492196336
aF0.10228213880254929
aF0.12835973808612944
aF0.33564958659308353
aF0.031421199149906244
aF-0.088496446534196027
aF0.049994957533221834
aF-0.019139826635022974
aF0.0066730796845829261
aF-0.0041744942547176141
aF-0.0050911618346463662
aF0.014904502050318633
aF-0.016647524308465195
asS'step_size_list'
p471
(lp472
F1.0000000000000001e-05
aF-2.2703715661401182e-06
aF-6.6290031967849858e-06
aF2.9692072492196338e-06
aF1.022821388025493e-06
aF1.2835973808612946e-06
aF3.3564958659308355e-06
aF3.1421199149906247e-07
aF-8.8496446534196038e-07
aF4.9994957533221841e-07
aF-1.9139826635022974e-07
aF6.6730796845829265e-08
aF-4.1744942547176146e-08
aF-5.0911618346463663e-08
aF1.4904502050318634e-07
aF-1.6647524308465196e-07
asbsS'preferences'
p473
(dp474
g393
F1320805197.2852449
sg4
g5
sS'TunerGUI'
p475
(dp476
S'visible_column_name_list'
p477
(lp478
S'Group Name'
p479
aS'Knob Name'
p480
aS'Weight'
p481
aS'N.Weight'
p482
aS'Step Size'
p483
aS'sb'
p484
aS'Reading'
p485
aS'Setpoint'
p486
aS'Start Read'
p487
aS'Start Setp'
p488
assss.