(dp1
S'name'
p2
csip
_unpickle_type
p3
(S'PyQt4.QtCore'
p4
S'QString'
(VQH
p5
ttRp6
sS'config_description'
p7
S''
sS'version'
p8
S'0.1.0'
p9
sS'time_stamp'
p10
F1321327664.5645189
sS'data'
p11
(iTunerUtils.knob
KnobGroupList
p12
(dp13
S'refKnobGroupName'
p14
S'QH1'
p15
sS'knobGroups'
p16
(lp17
(iTunerUtils.knob
KnobGroup
p18
(dp19
S'knobs'
p20
(lp21
(iTunerUtils.knob
Knob
p22
(dp23
S'phylen'
p24
F0
sS'girder'
p25
VG2
p26
sS'pvsp_val'
p27
ccopy_reg
_reconstructor
p28
(ccothread.dbr
ca_float
p29
c__builtin__
float
p30
F-0.63300400000000001
tRp31
(dp32
S'ok'
p33
I01
sg2
S'SR:C30-MG:G02A{Quad:H1}Fld-SP'
p34
sbsS'family'
p35
VQUAD
p36
sS'sequence'
p37
(I0
I0
tp38
sS'devname'
p39
VQH1G2C30A
p40
sS'symmetry'
p41
VA
sS'group'
p42
(lp43
VQUAD
p44
aVC30
p45
aVG2
p46
aVA
asS'field_name'
p47
S'value'
p48
sS'index'
p49
I12
sS'elem_name'
p50
VQH1G2C30A
p51
sg2
VQH1G2C30A.value
p52
sS'pvrb'
p53
(lp54
S'SR:C30-MG:G02A{Quad:H1}Fld-I'
p55
asS'pvsp_val_time_stamp'
p56
NsS'pvrb_val_time_stamp'
p57
NsS'virtual'
p58
I0
sS'pv_unit'
p59
S''
sS'cell'
p60
VC30
p61
sS'length'
p62
F0.27500000000000002
sS'pvsp'
p63
(lp64
S'SR:C30-MG:G02A{Quad:H1}Fld-SP'
p65
asS'pvrb_val'
p66
g28
(g29
g30
F-0.63271026431461053
tRp67
(dp68
g33
I01
sg2
S'SR:C30-MG:G02A{Quad:H1}Fld-I'
p69
sbsS'sb'
p70
F5.0124999999999993
sS'se'
p71
F5.2874999999999996
sba(iTunerUtils.knob
Knob
p72
(dp73
g24
F0
sg25
VG6
p74
sg27
g28
(g29
g30
F-0.63300400000000001
tRp75
(dp76
g33
I01
sg2
S'SR:C01-MG:G06B{Quad:H1}Fld-SP'
p77
sbsg35
VQUAD
p78
sg37
g38
sg39
VQH1G6C01B
p79
sg41
VB
sg42
(lp80
VQUAD
p81
aVC01
p82
aVG6
p83
aVB
asg47
g48
sg49
I205
sg50
VQH1G6C01B
p84
sg2
VQH1G6C01B.value
p85
sg53
(lp86
S'SR:C01-MG:G06B{Quad:H1}Fld-I'
p87
asg56
Nsg57
Nsg58
I0
sg59
S''
sg60
VC01
p88
sg62
F0.27500000000000002
sg63
(lp89
S'SR:C01-MG:G06B{Quad:H1}Fld-SP'
p90
asg66
g28
(g29
g30
F-0.63303506824393085
tRp91
(dp92
g33
I01
sg2
S'SR:C01-MG:G06B{Quad:H1}Fld-I'
p93
sbsg70
F47.509700000000002
sg71
F47.784700000000001
sba(iTunerUtils.knob
Knob
p94
(dp95
g24
F0
sg25
VG2
p96
sg27
g28
(g29
g30
F-0.63300400000000001
tRp97
(dp98
g33
I01
sg2
S'SR:C02-MG:G02A{Quad:H1}Fld-SP'
p99
sbsg35
VQUAD
p100
sg37
g38
sg39
VQH1G2C02A
p101
sg41
VA
sg42
(lp102
VQUAD
p103
aVC02
p104
aVG2
p105
aVA
asg47
g48
sg49
I228
sg50
VQH1G2C02A
p106
sg2
VQH1G2C02A.value
p107
sg53
(lp108
S'SR:C02-MG:G02A{Quad:H1}Fld-I'
p109
asg56
Nsg57
Nsg58
I0
sg59
S''
sg60
VC02
p110
sg62
F0.27500000000000002
sg63
(lp111
S'SR:C02-MG:G02A{Quad:H1}Fld-SP'
p112
asg66
g28
(g29
g30
F-0.63270626547954534
tRp113
(dp114
g33
I01
sg2
S'SR:C02-MG:G02A{Quad:H1}Fld-I'
p115
sbsg70
F57.809699999999999
sg71
F58.084699999999998
sba(iTunerUtils.knob
Knob
p116
(dp117
g24
F0
sg25
VG6
p118
sg27
g28
(g29
g30
F-0.63300400000000001
tRp119
(dp120
g33
I01
sg2
S'SR:C03-MG:G06B{Quad:H1}Fld-SP'
p121
sbsg35
VQUAD
p122
sg37
g38
sg39
VQH1G6C03B
p123
sg41
VB
sg42
(lp124
VQUAD
p125
aVC03
p126
aVG6
p127
aVB
asg47
g48
sg49
I421
sg50
VQH1G6C03B
p128
sg2
VQH1G6C03B.value
p129
sg53
(lp130
S'SR:C03-MG:G06B{Quad:H1}Fld-I'
p131
asg56
Nsg57
Nsg58
I0
sg59
S''
sg60
VC03
p132
sg62
F0.27500000000000002
sg63
(lp133
S'SR:C03-MG:G06B{Quad:H1}Fld-SP'
p134
asg66
g28
(g29
g30
F-0.63283889350920886
tRp135
(dp136
g33
I01
sg2
S'SR:C03-MG:G06B{Quad:H1}Fld-I'
p137
sbsg70
F100.30699999999999
sg71
F100.58199999999999
sba(iTunerUtils.knob
Knob
p138
(dp139
g24
F0
sg25
VG2
p140
sg27
g28
(g29
g30
F-0.63300400000000001
tRp141
(dp142
g33
I01
sg2
S'SR:C04-MG:G02A{Quad:H1}Fld-SP'
p143
sbsg35
VQUAD
p144
sg37
g38
sg39
VQH1G2C04A
p145
sg41
VA
sg42
(lp146
VQUAD
p147
aVC04
p148
aVG2
p149
aVA
asg47
g48
sg49
I444
sg50
VQH1G2C04A
p150
sg2
VQH1G2C04A.value
p151
sg53
(lp152
S'SR:C04-MG:G02A{Quad:H1}Fld-I'
p153
asg56
Nsg57
Nsg58
I0
sg59
S''
sg60
VC04
p154
sg62
F0.27500000000000002
sg63
(lp155
S'SR:C04-MG:G02A{Quad:H1}Fld-SP'
p156
asg66
g28
(g29
g30
F-0.6333048350664835
tRp157
(dp158
g33
I01
sg2
S'SR:C04-MG:G02A{Quad:H1}Fld-I'
p159
sbsg70
F110.607
sg71
F110.88200000000001
sba(iTunerUtils.knob
Knob
p160
(dp161
g24
F0
sg25
VG6
p162
sg27
g28
(g29
g30
F-0.63300400000000001
tRp163
(dp164
g33
I01
sg2
S'SR:C05-MG:G06B{Quad:H1}Fld-SP'
p165
sbsg35
VQUAD
p166
sg37
g38
sg39
VQH1G6C05B
p167
sg41
VB
sg42
(lp168
VQUAD
p169
aVC05
p170
aVG6
p171
aVB
asg47
g48
sg49
I637
sg50
VQH1G6C05B
p172
sg2
VQH1G6C05B.value
p173
sg53
(lp174
S'SR:C05-MG:G06B{Quad:H1}Fld-I'
p175
asg56
Nsg57
Nsg58
I0
sg59
S''
sg60
VC05
p176
sg62
F0.27500000000000002
sg63
(lp177
S'SR:C05-MG:G06B{Quad:H1}Fld-SP'
p178
asg66
g28
(g29
g30
F-0.63328670508238349
tRp179
(dp180
g33
I01
sg2
S'SR:C05-MG:G06B{Quad:H1}Fld-I'
p181
sbsg70
F153.10399999999998
sg71
F153.37899999999999
sba(iTunerUtils.knob
Knob
p182
(dp183
g24
F0
sg25
VG2
p184
sg27
g28
(g29
g30
F-0.63300400000000001
tRp185
(dp186
g33
I01
sg2
S'SR:C06-MG:G02A{Quad:H1}Fld-SP'
p187
sbsg35
VQUAD
p188
sg37
g38
sg39
VQH1G2C06A
p189
sg41
VA
sg42
(lp190
VQUAD
p191
aVC06
p192
aVG2
p193
aVA
asg47
g48
sg49
I660
sg50
VQH1G2C06A
p194
sg2
VQH1G2C06A.value
p195
sg53
(lp196
S'SR:C06-MG:G02A{Quad:H1}Fld-I'
p197
asg56
Nsg57
Nsg58
I0
sg59
S''
sg60
VC06
p198
sg62
F0.27500000000000002
sg63
(lp199
S'SR:C06-MG:G02A{Quad:H1}Fld-SP'
p200
asg66
g28
(g29
g30
F-0.63289500276740673
tRp201
(dp202
g33
I01
sg2
S'SR:C06-MG:G02A{Quad:H1}Fld-I'
p203
sbsg70
F163.404
sg71
F163.679
sba(iTunerUtils.knob
Knob
p204
(dp205
g24
F0
sg25
VG6
p206
sg27
g28
(g29
g30
F-0.63300400000000001
tRp207
(dp208
g33
I01
sg2
S'SR:C07-MG:G06B{Quad:H1}Fld-SP'
p209
sbsg35
VQUAD
p210
sg37
g38
sg39
VQH1G6C07B
p211
sg41
VB
sg42
(lp212
VQUAD
p213
aVC07
p214
aVG6
p215
aVB
asg47
g48
sg49
I853
sg50
VQH1G6C07B
p216
sg2
VQH1G6C07B.value
p217
sg53
(lp218
S'SR:C07-MG:G06B{Quad:H1}Fld-I'
p219
asg56
Nsg57
Nsg58
I0
sg59
S''
sg60
VC07
p220
sg62
F0.27500000000000002
sg63
(lp221
S'SR:C07-MG:G06B{Quad:H1}Fld-SP'
p222
asg66
g28
(g29
g30
F-0.63308898490415799
tRp223
(dp224
g33
I01
sg2
S'SR:C07-MG:G06B{Quad:H1}Fld-I'
p225
sbsg70
F205.90099999999998
sg71
F206.17599999999999
sba(iTunerUtils.knob
Knob
p226
(dp227
g24
F0
sg25
VG2
p228
sg27
g28
(g29
g30
F-0.63300400000000001
tRp229
(dp230
g33
I01
sg2
S'SR:C08-MG:G02A{Quad:H1}Fld-SP'
p231
sbsg35
VQUAD
p232
sg37
g38
sg39
VQH1G2C08A
p233
sg41
VA
sg42
(lp234
VQUAD
p235
aVC08
p236
aVG2
p237
aVA
asg47
g48
sg49
I876
sg50
VQH1G2C08A
p238
sg2
VQH1G2C08A.value
p239
sg53
(lp240
S'SR:C08-MG:G02A{Quad:H1}Fld-I'
p241
asg56
Nsg57
Nsg58
I0
sg59
S''
sg60
VC08
p242
sg62
F0.27500000000000002
sg63
(lp243
S'SR:C08-MG:G02A{Quad:H1}Fld-SP'
p244
asg66
g28
(g29
g30
F-0.6327440322551614
tRp245
(dp246
g33
I01
sg2
S'SR:C08-MG:G02A{Quad:H1}Fld-I'
p247
sbsg70
F216.20099999999999
sg71
F216.476
sba(iTunerUtils.knob
Knob
p248
(dp249
g24
F0
sg25
VG6
p250
sg27
g28
(g29
g30
F-0.63300400000000001
tRp251
(dp252
g33
I01
sg2
S'SR:C09-MG:G06B{Quad:H1}Fld-SP'
p253
sbsg35
VQUAD
p254
sg37
g38
sg39
VQH1G6C09B
p255
sg41
VB
sg42
(lp256
VQUAD
p257
aVC09
p258
aVG6
p259
aVB
asg47
g48
sg49
I1069
sg50
VQH1G6C09B
p260
sg2
VQH1G6C09B.value
p261
sg53
(lp262
S'SR:C09-MG:G06B{Quad:H1}Fld-I'
p263
asg56
Nsg57
Nsg58
I0
sg59
S''
sg60
VC09
p264
sg62
F0.27500000000000002
sg63
(lp265
S'SR:C09-MG:G06B{Quad:H1}Fld-SP'
p266
asg66
g28
(g29
g30
F-0.63300361846863507
tRp267
(dp268
g33
I01
sg2
S'SR:C09-MG:G06B{Quad:H1}Fld-I'
p269
sbsg70
F258.69800000000004
sg71
F258.97300000000001
sba(iTunerUtils.knob
Knob
p270
(dp271
g24
F0
sg25
VG2
p272
sg27
g28
(g29
g30
F-0.63300400000000001
tRp273
(dp274
g33
I01
sg2
S'SR:C10-MG:G02A{Quad:H1}Fld-SP'
p275
sbsg35
VQUAD
p276
sg37
g38
sg39
VQH1G2C10A
p277
sg41
VA
sg42
(lp278
VQUAD
p279
aVC10
p280
aVG2
p281
aVA
asg47
g48
sg49
I1092
sg50
VQH1G2C10A
p282
sg2
VQH1G2C10A.value
p283
sg53
(lp284
S'SR:C10-MG:G02A{Quad:H1}Fld-I'
p285
asg56
Nsg57
Nsg58
I0
sg59
S''
sg60
VC10
p286
sg62
F0.27500000000000002
sg63
(lp287
S'SR:C10-MG:G02A{Quad:H1}Fld-SP'
p288
asg66
g28
(g29
g30
F-0.63327846593670567
tRp289
(dp290
g33
I01
sg2
S'SR:C10-MG:G02A{Quad:H1}Fld-I'
p291
sbsg70
F268.99800000000005
sg71
F269.27300000000002
sba(iTunerUtils.knob
Knob
p292
(dp293
g24
F0
sg25
VG6
p294
sg27
g28
(g29
g30
F-0.63300400000000001
tRp295
(dp296
g33
I01
sg2
S'SR:C11-MG:G06B{Quad:H1}Fld-SP'
p297
sbsg35
VQUAD
p298
sg37
g38
sg39
VQH1G6C11B
p299
sg41
VB
sg42
(lp300
VQUAD
p301
aVC11
p302
aVG6
p303
aVB
asg47
g48
sg49
I1285
sg50
VQH1G6C11B
p304
sg2
VQH1G6C11B.value
p305
sg53
(lp306
S'SR:C11-MG:G06B{Quad:H1}Fld-I'
p307
asg56
Nsg57
Nsg58
I0
sg59
S''
sg60
VC11
p308
sg62
F0.27500000000000002
sg63
(lp309
S'SR:C11-MG:G06B{Quad:H1}Fld-SP'
p310
asg66
g28
(g29
g30
F-0.63306646006509504
tRp311
(dp312
g33
I01
sg2
S'SR:C11-MG:G06B{Quad:H1}Fld-I'
p313
sbsg70
F311.49600000000004
sg71
F311.77100000000002
sba(iTunerUtils.knob
Knob
p314
(dp315
g24
F0
sg25
VG2
p316
sg27
g28
(g29
g30
F-0.63300400000000001
tRp317
(dp318
g33
I01
sg2
S'SR:C12-MG:G02A{Quad:H1}Fld-SP'
p319
sbsg35
VQUAD
p320
sg37
g38
sg39
VQH1G2C12A
p321
sg41
VA
sg42
(lp322
VQUAD
p323
aVC12
p324
aVG2
p325
aVA
asg47
g48
sg49
I1308
sg50
VQH1G2C12A
p326
sg2
VQH1G2C12A.value
p327
sg53
(lp328
S'SR:C12-MG:G02A{Quad:H1}Fld-I'
p329
asg56
Nsg57
Nsg58
I0
sg59
S''
sg60
VC12
p330
sg62
F0.27500000000000002
sg63
(lp331
S'SR:C12-MG:G02A{Quad:H1}Fld-SP'
p332
asg66
g28
(g29
g30
F-0.63289722434267037
tRp333
(dp334
g33
I01
sg2
S'SR:C12-MG:G02A{Quad:H1}Fld-I'
p335
sbsg70
F321.79600000000005
sg71
F322.07100000000003
sba(iTunerUtils.knob
Knob
p336
(dp337
g24
F0
sg25
VG6
p338
sg27
g28
(g29
g30
F-0.63300400000000001
tRp339
(dp340
g33
I01
sg2
S'SR:C13-MG:G06B{Quad:H1}Fld-SP'
p341
sbsg35
VQUAD
p342
sg37
g38
sg39
VQH1G6C13B
p343
sg41
VB
sg42
(lp344
VQUAD
p345
aVC13
p346
aVG6
p347
aVB
asg47
g48
sg49
I1501
sg50
VQH1G6C13B
p348
sg2
VQH1G6C13B.value
p349
sg53
(lp350
S'SR:C13-MG:G06B{Quad:H1}Fld-I'
p351
asg56
Nsg57
Nsg58
I0
sg59
S''
sg60
VC13
p352
sg62
F0.27500000000000002
sg63
(lp353
S'SR:C13-MG:G06B{Quad:H1}Fld-SP'
p354
asg66
g28
(g29
g30
F-0.63298696631488516
tRp355
(dp356
g33
I01
sg2
S'SR:C13-MG:G06B{Quad:H1}Fld-I'
p357
sbsg70
F364.29300000000001
sg71
F364.56799999999998
sba(iTunerUtils.knob
Knob
p358
(dp359
g24
F0
sg25
VG2
p360
sg27
g28
(g29
g30
F-0.63300400000000001
tRp361
(dp362
g33
I01
sg2
S'SR:C14-MG:G02A{Quad:H1}Fld-SP'
p363
sbsg35
VQUAD
p364
sg37
g38
sg39
VQH1G2C14A
p365
sg41
VA
sg42
(lp366
VQUAD
p367
aVC14
p368
aVG2
p369
aVA
asg47
g48
sg49
I1524
sg50
VQH1G2C14A
p370
sg2
VQH1G2C14A.value
p371
sg53
(lp372
S'SR:C14-MG:G02A{Quad:H1}Fld-I'
p373
asg56
Nsg57
Nsg58
I0
sg59
S''
sg60
VC14
p374
sg62
F0.27500000000000002
sg63
(lp375
S'SR:C14-MG:G02A{Quad:H1}Fld-SP'
p376
asg66
g28
(g29
g30
F-0.63311484210577551
tRp377
(dp378
g33
I01
sg2
S'SR:C14-MG:G02A{Quad:H1}Fld-I'
p379
sbsg70
F374.59300000000002
sg71
F374.86799999999999
sba(iTunerUtils.knob
Knob
p380
(dp381
g24
F0
sg25
VG6
p382
sg27
g28
(g29
g30
F-0.63300400000000001
tRp383
(dp384
g33
I01
sg2
S'SR:C15-MG:G06B{Quad:H1}Fld-SP'
p385
sbsg35
VQUAD
p386
sg37
g38
sg39
VQH1G6C15B
p387
sg41
VB
sg42
(lp388
VQUAD
p389
aVC15
p390
aVG6
p391
aVB
asg47
g48
sg49
I1717
sg50
VQH1G6C15B
p392
sg2
VQH1G6C15B.value
p393
sg53
(lp394
S'SR:C15-MG:G06B{Quad:H1}Fld-I'
p395
asg56
Nsg57
Nsg58
I0
sg59
S''
sg60
VC15
p396
sg62
F0.27500000000000002
sg63
(lp397
S'SR:C15-MG:G06B{Quad:H1}Fld-SP'
p398
asg66
g28
(g29
g30
F-0.63317684336733049
tRp399
(dp400
g33
I01
sg2
S'SR:C15-MG:G06B{Quad:H1}Fld-I'
p401
sbsg70
F417.09000000000003
sg71
F417.36500000000001
sba(iTunerUtils.knob
Knob
p402
(dp403
g24
F0
sg25
VG2
p404
sg27
g28
(g29
g30
F-0.63300400000000001
tRp405
(dp406
g33
I01
sg2
S'SR:C16-MG:G02A{Quad:H1}Fld-SP'
p407
sbsg35
VQUAD
p408
sg37
g38
sg39
VQH1G2C16A
p409
sg41
VA
sg42
(lp410
VQUAD
p411
aVC16
p412
aVG2
p413
aVA
asg47
g48
sg49
I1740
sg50
VQH1G2C16A
p414
sg2
VQH1G2C16A.value
p415
sg53
(lp416
S'SR:C16-MG:G02A{Quad:H1}Fld-I'
p417
asg56
Nsg57
Nsg58
I0
sg59
S''
sg60
VC16
p418
sg62
F0.27500000000000002
sg63
(lp419
S'SR:C16-MG:G02A{Quad:H1}Fld-SP'
p420
asg66
g28
(g29
g30
F-0.63294347173928434
tRp421
(dp422
g33
I01
sg2
S'SR:C16-MG:G02A{Quad:H1}Fld-I'
p423
sbsg70
F427.39000000000004
sg71
F427.66500000000002
sba(iTunerUtils.knob
Knob
p424
(dp425
g24
F0
sg25
VG6
p426
sg27
g28
(g29
g30
F-0.63300400000000001
tRp427
(dp428
g33
I01
sg2
S'SR:C17-MG:G06B{Quad:H1}Fld-SP'
p429
sbsg35
VQUAD
p430
sg37
g38
sg39
VQH1G6C17B
p431
sg41
VB
sg42
(lp432
VQUAD
p433
aVC17
p434
aVG6
p435
aVB
asg47
g48
sg49
I1933
sg50
VQH1G6C17B
p436
sg2
VQH1G6C17B.value
p437
sg53
(lp438
S'SR:C17-MG:G06B{Quad:H1}Fld-I'
p439
asg56
Nsg57
Nsg58
I0
sg59
S''
sg60
VC17
p440
sg62
F0.27500000000000002
sg63
(lp441
S'SR:C17-MG:G06B{Quad:H1}Fld-SP'
p442
asg66
g28
(g29
g30
F-0.63324663945955595
tRp443
(dp444
g33
I01
sg2
S'SR:C17-MG:G06B{Quad:H1}Fld-I'
p445
sbsg70
F469.887
sg71
F470.16199999999998
sba(iTunerUtils.knob
Knob
p446
(dp447
g24
F0
sg25
VG2
p448
sg27
g28
(g29
g30
F-0.63300400000000001
tRp449
(dp450
g33
I01
sg2
S'SR:C18-MG:G02A{Quad:H1}Fld-SP'
p451
sbsg35
VQUAD
p452
sg37
g38
sg39
VQH1G2C18A
p453
sg41
VA
sg42
(lp454
VQUAD
p455
aVC18
p456
aVG2
p457
aVA
asg47
g48
sg49
I1956
sg50
VQH1G2C18A
p458
sg2
VQH1G2C18A.value
p459
sg53
(lp460
S'SR:C18-MG:G02A{Quad:H1}Fld-I'
p461
asg56
Nsg57
Nsg58
I0
sg59
S''
sg60
VC18
p462
sg62
F0.27500000000000002
sg63
(lp463
S'SR:C18-MG:G02A{Quad:H1}Fld-SP'
p464
asg66
g28
(g29
g30
F-0.63277009229623871
tRp465
(dp466
g33
I01
sg2
S'SR:C18-MG:G02A{Quad:H1}Fld-I'
p467
sbsg70
F480.18700000000001
sg71
F480.46199999999999
sba(iTunerUtils.knob
Knob
p468
(dp469
g24
F0
sg25
VG6
p470
sg27
g28
(g29
g30
F-0.63300400000000001
tRp471
(dp472
g33
I01
sg2
S'SR:C19-MG:G06B{Quad:H1}Fld-SP'
p473
sbsg35
VQUAD
p474
sg37
g38
sg39
VQH1G6C19B
p475
sg41
VB
sg42
(lp476
VQUAD
p477
aVC19
p478
aVG6
p479
aVB
asg47
g48
sg49
I2149
sg50
VQH1G6C19B
p480
sg2
VQH1G6C19B.value
p481
sg53
(lp482
S'SR:C19-MG:G06B{Quad:H1}Fld-I'
p483
asg56
Nsg57
Nsg58
I0
sg59
S''
sg60
VC19
p484
sg62
F0.27500000000000002
sg63
(lp485
S'SR:C19-MG:G06B{Quad:H1}Fld-SP'
p486
asg66
g28
(g29
g30
F-0.63303439211239798
tRp487
(dp488
g33
I01
sg2
S'SR:C19-MG:G06B{Quad:H1}Fld-I'
p489
sbsg70
F522.68399999999997
sg71
F522.95899999999995
sba(iTunerUtils.knob
Knob
p490
(dp491
g24
F0
sg25
VG2
p492
sg27
g28
(g29
g30
F-0.63300400000000001
tRp493
(dp494
g33
I01
sg2
S'SR:C20-MG:G02A{Quad:H1}Fld-SP'
p495
sbsg35
VQUAD
p496
sg37
g38
sg39
VQH1G2C20A
p497
sg41
VA
sg42
(lp498
VQUAD
p499
aVC20
p500
aVG2
p501
aVA
asg47
g48
sg49
I2172
sg50
VQH1G2C20A
p502
sg2
VQH1G2C20A.value
p503
sg53
(lp504
S'SR:C20-MG:G02A{Quad:H1}Fld-I'
p505
asg56
Nsg57
Nsg58
I0
sg59
S''
sg60
VC20
p506
sg62
F0.27500000000000002
sg63
(lp507
S'SR:C20-MG:G02A{Quad:H1}Fld-SP'
p508
asg66
g28
(g29
g30
F-0.63316960875992978
tRp509
(dp510
g33
I01
sg2
S'SR:C20-MG:G02A{Quad:H1}Fld-I'
p511
sbsg70
F532.98400000000004
sg71
F533.25900000000001
sba(iTunerUtils.knob
Knob
p512
(dp513
g24
F0
sg25
VG6
p514
sg27
g28
(g29
g30
F-0.63300400000000001
tRp515
(dp516
g33
I01
sg2
S'SR:C21-MG:G06B{Quad:H1}Fld-SP'
p517
sbsg35
VQUAD
p518
sg37
g38
sg39
VQH1G6C21B
p519
sg41
VB
sg42
(lp520
VQUAD
p521
aVC21
p522
aVG6
p523
aVB
asg47
g48
sg49
I2365
sg50
VQH1G6C21B
p524
sg2
VQH1G6C21B.value
p525
sg53
(lp526
S'SR:C21-MG:G06B{Quad:H1}Fld-I'
p527
asg56
Nsg57
Nsg58
I0
sg59
S''
sg60
VC21
p528
sg62
F0.27500000000000002
sg63
(lp529
S'SR:C21-MG:G06B{Quad:H1}Fld-SP'
p530
asg66
g28
(g29
g30
F-0.63300126166729231
tRp531
(dp532
g33
I01
sg2
S'SR:C21-MG:G06B{Quad:H1}Fld-I'
p533
sbsg70
F575.48199999999997
sg71
F575.75699999999995
sba(iTunerUtils.knob
Knob
p534
(dp535
g24
F0
sg25
VG2
p536
sg27
g28
(g29
g30
F-0.63300400000000001
tRp537
(dp538
g33
I01
sg2
S'SR:C22-MG:G02A{Quad:H1}Fld-SP'
p539
sbsg35
VQUAD
p540
sg37
g38
sg39
VQH1G2C22A
p541
sg41
VA
sg42
(lp542
VQUAD
p543
aVC22
p544
aVG2
p545
aVA
asg47
g48
sg49
I2388
sg50
VQH1G2C22A
p546
sg2
VQH1G2C22A.value
p547
sg53
(lp548
S'SR:C22-MG:G02A{Quad:H1}Fld-I'
p549
asg56
Nsg57
Nsg58
I0
sg59
S''
sg60
VC22
p550
sg62
F0.27500000000000002
sg63
(lp551
S'SR:C22-MG:G02A{Quad:H1}Fld-SP'
p552
asg66
g28
(g29
g30
F-0.63308493777398334
tRp553
(dp554
g33
I01
sg2
S'SR:C22-MG:G02A{Quad:H1}Fld-I'
p555
sbsg70
F585.78200000000004
sg71
F586.05700000000002
sba(iTunerUtils.knob
Knob
p556
(dp557
g24
F0
sg25
VG6
p558
sg27
g28
(g29
g30
F-0.63300400000000001
tRp559
(dp560
g33
I01
sg2
S'SR:C23-MG:G06B{Quad:H1}Fld-SP'
p561
sbsg35
VQUAD
p562
sg37
g38
sg39
VQH1G6C23B
p563
sg41
VB
sg42
(lp564
VQUAD
p565
aVC23
p566
aVG6
p567
aVB
asg47
g48
sg49
I2581
sg50
VQH1G6C23B
p568
sg2
VQH1G6C23B.value
p569
sg53
(lp570
S'SR:C23-MG:G06B{Quad:H1}Fld-I'
p571
asg56
Nsg57
Nsg58
I0
sg59
S''
sg60
VC23
p572
sg62
F0.27500000000000002
sg63
(lp573
S'SR:C23-MG:G06B{Quad:H1}Fld-SP'
p574
asg66
g28
(g29
g30
F-0.63272812384609756
tRp575
(dp576
g33
I01
sg2
S'SR:C23-MG:G06B{Quad:H1}Fld-I'
p577
sbsg70
F628.279
sg71
F628.55399999999997
sba(iTunerUtils.knob
Knob
p578
(dp579
g24
F0
sg25
VG2
p580
sg27
g28
(g29
g30
F-0.63300400000000001
tRp581
(dp582
g33
I01
sg2
S'SR:C24-MG:G02A{Quad:H1}Fld-SP'
p583
sbsg35
VQUAD
p584
sg37
g38
sg39
VQH1G2C24A
p585
sg41
VA
sg42
(lp586
VQUAD
p587
aVC24
p588
aVG2
p589
aVA
asg47
g48
sg49
I2604
sg50
VQH1G2C24A
p590
sg2
VQH1G2C24A.value
p591
sg53
(lp592
S'SR:C24-MG:G02A{Quad:H1}Fld-I'
p593
asg56
Nsg57
Nsg58
I0
sg59
S''
sg60
VC24
p594
sg62
F0.27500000000000002
sg63
(lp595
S'SR:C24-MG:G02A{Quad:H1}Fld-SP'
p596
asg66
g28
(g29
g30
F-0.63307120264484629
tRp597
(dp598
g33
I01
sg2
S'SR:C24-MG:G02A{Quad:H1}Fld-I'
p599
sbsg70
F638.57900000000006
sg71
F638.85400000000004
sba(iTunerUtils.knob
Knob
p600
(dp601
g24
F0
sg25
VG6
p602
sg27
g28
(g29
g30
F-0.63300400000000001
tRp603
(dp604
g33
I01
sg2
S'SR:C25-MG:G06B{Quad:H1}Fld-SP'
p605
sbsg35
VQUAD
p606
sg37
g38
sg39
VQH1G6C25B
p607
sg41
VB
sg42
(lp608
VQUAD
p609
aVC25
p610
aVG6
p611
aVB
asg47
g48
sg49
I2797
sg50
VQH1G6C25B
p612
sg2
VQH1G6C25B.value
p613
sg53
(lp614
S'SR:C25-MG:G06B{Quad:H1}Fld-I'
p615
asg56
Nsg57
Nsg58
I0
sg59
S''
sg60
VC25
p616
sg62
F0.27500000000000002
sg63
(lp617
S'SR:C25-MG:G06B{Quad:H1}Fld-SP'
p618
asg66
g28
(g29
g30
F-0.63321024426504924
tRp619
(dp620
g33
I01
sg2
S'SR:C25-MG:G06B{Quad:H1}Fld-I'
p621
sbsg70
F681.07600000000002
sg71
F681.351
sba(iTunerUtils.knob
Knob
p622
(dp623
g24
F0
sg25
VG2
p624
sg27
g28
(g29
g30
F-0.63300400000000001
tRp625
(dp626
g33
I01
sg2
S'SR:C26-MG:G02A{Quad:H1}Fld-SP'
p627
sbsg35
VQUAD
p628
sg37
g38
sg39
VQH1G2C26A
p629
sg41
VA
sg42
(lp630
VQUAD
p631
aVC26
p632
aVG2
p633
aVA
asg47
g48
sg49
I2820
sg50
VQH1G2C26A
p634
sg2
VQH1G2C26A.value
p635
sg53
(lp636
S'SR:C26-MG:G02A{Quad:H1}Fld-I'
p637
asg56
Nsg57
Nsg58
I0
sg59
S''
sg60
VC26
p638
sg62
F0.27500000000000002
sg63
(lp639
S'SR:C26-MG:G02A{Quad:H1}Fld-SP'
p640
asg66
g28
(g29
g30
F-0.63284280541307691
tRp641
(dp642
g33
I01
sg2
S'SR:C26-MG:G02A{Quad:H1}Fld-I'
p643
sbsg70
F691.37599999999998
sg71
F691.65099999999995
sba(iTunerUtils.knob
Knob
p644
(dp645
g24
F0
sg25
VG6
p646
sg27
g28
(g29
g30
F-0.63300400000000001
tRp647
(dp648
g33
I01
sg2
S'SR:C27-MG:G06B{Quad:H1}Fld-SP'
p649
sbsg35
VQUAD
p650
sg37
g38
sg39
VQH1G6C27B
p651
sg41
VB
sg42
(lp652
VQUAD
p653
aVC27
p654
aVG6
p655
aVB
asg47
g48
sg49
I3013
sg50
VQH1G6C27B
p656
sg2
VQH1G6C27B.value
p657
sg53
(lp658
S'SR:C27-MG:G06B{Quad:H1}Fld-I'
p659
asg56
Nsg57
Nsg58
I0
sg59
S''
sg60
VC27
p660
sg62
F0.27500000000000002
sg63
(lp661
S'SR:C27-MG:G06B{Quad:H1}Fld-SP'
p662
asg66
g28
(g29
g30
F-0.63282181635849544
tRp663
(dp664
g33
I01
sg2
S'SR:C27-MG:G06B{Quad:H1}Fld-I'
p665
sbsg70
F733.87300000000005
sg71
F734.14800000000002
sba(iTunerUtils.knob
Knob
p666
(dp667
g24
F0
sg25
VG2
p668
sg27
g28
(g29
g30
F-0.63300400000000001
tRp669
(dp670
g33
I01
sg2
S'SR:C28-MG:G02A{Quad:H1}Fld-SP'
p671
sbsg35
VQUAD
p672
sg37
g38
sg39
VQH1G2C28A
p673
sg41
VA
sg42
(lp674
VQUAD
p675
aVC28
p676
aVG2
p677
aVA
asg47
g48
sg49
I3036
sg50
VQH1G2C28A
p678
sg2
VQH1G2C28A.value
p679
sg53
(lp680
S'SR:C28-MG:G02A{Quad:H1}Fld-I'
p681
asg56
Nsg57
Nsg58
I0
sg59
S''
sg60
VC28
p682
sg62
F0.27500000000000002
sg63
(lp683
S'SR:C28-MG:G02A{Quad:H1}Fld-SP'
p684
asg66
g28
(g29
g30
F-0.6332515945377889
tRp685
(dp686
g33
I01
sg2
S'SR:C28-MG:G02A{Quad:H1}Fld-I'
p687
sbsg70
F744.173
sg71
F744.44799999999998
sba(iTunerUtils.knob
Knob
p688
(dp689
g24
F0
sg25
VG6
p690
sg27
g28
(g29
g30
F-0.63300400000000001
tRp691
(dp692
g33
I01
sg2
S'SR:C29-MG:G06B{Quad:H1}Fld-SP'
p693
sbsg35
VQUAD
p694
sg37
g38
sg39
VQH1G6C29B
p695
sg41
VB
sg42
(lp696
VQUAD
p697
aVC29
p698
aVG6
p699
aVB
asg47
g48
sg49
I3233
sg50
VQH1G6C29B
p700
sg2
VQH1G6C29B.value
p701
sg53
(lp702
S'SR:C29-MG:G06B{Quad:H1}Fld-I'
p703
asg56
Nsg57
Nsg58
I0
sg59
S''
sg60
VC29
p704
sg62
F0.27500000000000002
sg63
(lp705
S'SR:C29-MG:G06B{Quad:H1}Fld-SP'
p706
asg66
g28
(g29
g30
F-0.63319746537907984
tRp707
(dp708
g33
I01
sg2
S'SR:C29-MG:G06B{Quad:H1}Fld-I'
p709
sbsg70
F786.67100000000005
sg71
F786.94600000000003
sbasg2
g15
sS'weight'
p710
F1
sba(iTunerUtils.knob
KnobGroup
p711
(dp712
g20
(lp713
(iTunerUtils.knob
Knob
p714
(dp715
g24
F0
sg25
VG2
p716
sg27
g28
(g29
g30
F1.4776499999999999
tRp717
(dp718
g33
I01
sg2
S'SR:C30-MG:G02A{Quad:H2}Fld-SP'
p719
sbsg35
VQUAD
p720
sg37
g38
sg39
VQH2G2C30A
p721
sg41
VA
sg42
(lp722
VQUAD
p723
aVC30
p724
aVG2
p725
aVA
asg47
g48
sg49
I18
sg50
VQH2G2C30A
p726
sg2
VQH2G2C30A.value
p727
sg53
(lp728
S'SR:C30-MG:G02A{Quad:H2}Fld-I'
p729
asg56
Nsg57
Nsg58
I0
sg59
S''
sg60
VC30
p730
sg62
F0.44800000000000001
sg63
(lp731
S'SR:C30-MG:G02A{Quad:H2}Fld-SP'
p732
asg66
g28
(g29
g30
F1.4773939168402379
tRp733
(dp734
g33
I01
sg2
S'SR:C30-MG:G02A{Quad:H2}Fld-I'
p735
sbsg70
F6.0919999999999996
sg71
F6.54
sba(iTunerUtils.knob
Knob
p736
(dp737
g24
F0
sg25
VG6
p738
sg27
g28
(g29
g30
F1.4776499999999999
tRp739
(dp740
g33
I01
sg2
S'SR:C01-MG:G06B{Quad:H2}Fld-SP'
p741
sbsg35
VQUAD
p742
sg37
g38
sg39
VQH2G6C01B
p743
sg41
VB
sg42
(lp744
VQUAD
p745
aVC01
p746
aVG6
p747
aVB
asg47
g48
sg49
I199
sg50
VQH2G6C01B
p748
sg2
VQH2G6C01B.value
p749
sg53
(lp750
S'SR:C01-MG:G06B{Quad:H2}Fld-I'
p751
asg56
Nsg57
Nsg58
I0
sg59
S''
sg60
VC01
p752
sg62
F0.44800000000000001
sg63
(lp753
S'SR:C01-MG:G06B{Quad:H2}Fld-SP'
p754
asg66
g28
(g29
g30
F1.4769240496189058
tRp755
(dp756
g33
I01
sg2
S'SR:C01-MG:G06B{Quad:H2}Fld-I'
p757
sbsg70
F46.257199999999997
sg71
F46.705199999999998
sba(iTunerUtils.knob
Knob
p758
(dp759
g24
F0
sg25
VG2
p760
sg27
g28
(g29
g30
F1.4776499999999999
tRp761
(dp762
g33
I01
sg2
S'SR:C02-MG:G02A{Quad:H2}Fld-SP'
p763
sbsg35
VQUAD
p764
sg37
g38
sg39
VQH2G2C02A
p765
sg41
VA
sg42
(lp766
VQUAD
p767
aVC02
p768
aVG2
p769
aVA
asg47
g48
sg49
I234
sg50
VQH2G2C02A
p770
sg2
VQH2G2C02A.value
p771
sg53
(lp772
S'SR:C02-MG:G02A{Quad:H2}Fld-I'
p773
asg56
Nsg57
Nsg58
I0
sg59
S''
sg60
VC02
p774
sg62
F0.44800000000000001
sg63
(lp775
S'SR:C02-MG:G02A{Quad:H2}Fld-SP'
p776
asg66
g28
(g29
g30
F1.4778606048649574
tRp777
(dp778
g33
I01
sg2
S'SR:C02-MG:G02A{Quad:H2}Fld-I'
p779
sbsg70
F58.889200000000002
sg71
F59.337200000000003
sba(iTunerUtils.knob
Knob
p780
(dp781
g24
F0
sg25
VG6
p782
sg27
g28
(g29
g30
F1.4776499999999999
tRp783
(dp784
g33
I01
sg2
S'SR:C03-MG:G06B{Quad:H2}Fld-SP'
p785
sbsg35
VQUAD
p786
sg37
g38
sg39
VQH2G6C03B
p787
sg41
VB
sg42
(lp788
VQUAD
p789
aVC03
p790
aVG6
p791
aVB
asg47
g48
sg49
I415
sg50
VQH2G6C03B
p792
sg2
VQH2G6C03B.value
p793
sg53
(lp794
S'SR:C03-MG:G06B{Quad:H2}Fld-I'
p795
asg56
Nsg57
Nsg58
I0
sg59
S''
sg60
VC03
p796
sg62
F0.44800000000000001
sg63
(lp797
S'SR:C03-MG:G06B{Quad:H2}Fld-SP'
p798
asg66
g28
(g29
g30
F1.4769150757164109
tRp799
(dp800
g33
I01
sg2
S'SR:C03-MG:G06B{Quad:H2}Fld-I'
p801
sbsg70
F99.054400000000001
sg71
F99.502399999999994
sba(iTunerUtils.knob
Knob
p802
(dp803
g24
F0
sg25
VG2
p804
sg27
g28
(g29
g30
F1.4776499999999999
tRp805
(dp806
g33
I01
sg2
S'SR:C04-MG:G02A{Quad:H2}Fld-SP'
p807
sbsg35
VQUAD
p808
sg37
g38
sg39
VQH2G2C04A
p809
sg41
VA
sg42
(lp810
VQUAD
p811
aVC04
p812
aVG2
p813
aVA
asg47
g48
sg49
I450
sg50
VQH2G2C04A
p814
sg2
VQH2G2C04A.value
p815
sg53
(lp816
S'SR:C04-MG:G02A{Quad:H2}Fld-I'
p817
asg56
Nsg57
Nsg58
I0
sg59
S''
sg60
VC04
p818
sg62
F0.44800000000000001
sg63
(lp819
S'SR:C04-MG:G02A{Quad:H2}Fld-SP'
p820
asg66
g28
(g29
g30
F1.4772475385111008
tRp821
(dp822
g33
I01
sg2
S'SR:C04-MG:G02A{Quad:H2}Fld-I'
p823
sbsg70
F111.68600000000001
sg71
F112.134
sba(iTunerUtils.knob
Knob
p824
(dp825
g24
F0
sg25
VG6
p826
sg27
g28
(g29
g30
F1.4776499999999999
tRp827
(dp828
g33
I01
sg2
S'SR:C05-MG:G06B{Quad:H2}Fld-SP'
p829
sbsg35
VQUAD
p830
sg37
g38
sg39
VQH2G6C05B
p831
sg41
VB
sg42
(lp832
VQUAD
p833
aVC05
p834
aVG6
p835
aVB
asg47
g48
sg49
I631
sg50
VQH2G6C05B
p836
sg2
VQH2G6C05B.value
p837
sg53
(lp838
S'SR:C05-MG:G06B{Quad:H2}Fld-I'
p839
asg56
Nsg57
Nsg58
I0
sg59
S''
sg60
VC05
p840
sg62
F0.44800000000000001
sg63
(lp841
S'SR:C05-MG:G06B{Quad:H2}Fld-SP'
p842
asg66
g28
(g29
g30
F1.4769591335191119
tRp843
(dp844
g33
I01
sg2
S'SR:C05-MG:G06B{Quad:H2}Fld-I'
p845
sbsg70
F151.852
sg71
F152.30000000000001
sba(iTunerUtils.knob
Knob
p846
(dp847
g24
F0
sg25
VG2
p848
sg27
g28
(g29
g30
F1.4776499999999999
tRp849
(dp850
g33
I01
sg2
S'SR:C06-MG:G02A{Quad:H2}Fld-SP'
p851
sbsg35
VQUAD
p852
sg37
g38
sg39
VQH2G2C06A
p853
sg41
VA
sg42
(lp854
VQUAD
p855
aVC06
p856
aVG2
p857
aVA
asg47
g48
sg49
I666
sg50
VQH2G2C06A
p858
sg2
VQH2G2C06A.value
p859
sg53
(lp860
S'SR:C06-MG:G02A{Quad:H2}Fld-I'
p861
asg56
Nsg57
Nsg58
I0
sg59
S''
sg60
VC06
p862
sg62
F0.44800000000000001
sg63
(lp863
S'SR:C06-MG:G02A{Quad:H2}Fld-SP'
p864
asg66
g28
(g29
g30
F1.4779703660643166
tRp865
(dp866
g33
I01
sg2
S'SR:C06-MG:G02A{Quad:H2}Fld-I'
p867
sbsg70
F164.48399999999998
sg71
F164.93199999999999
sba(iTunerUtils.knob
Knob
p868
(dp869
g24
F0
sg25
VG6
p870
sg27
g28
(g29
g30
F1.4776499999999999
tRp871
(dp872
g33
I01
sg2
S'SR:C07-MG:G06B{Quad:H2}Fld-SP'
p873
sbsg35
VQUAD
p874
sg37
g38
sg39
VQH2G6C07B
p875
sg41
VB
sg42
(lp876
VQUAD
p877
aVC07
p878
aVG6
p879
aVB
asg47
g48
sg49
I847
sg50
VQH2G6C07B
p880
sg2
VQH2G6C07B.value
p881
sg53
(lp882
S'SR:C07-MG:G06B{Quad:H2}Fld-I'
p883
asg56
Nsg57
Nsg58
I0
sg59
S''
sg60
VC07
p884
sg62
F0.44800000000000001
sg63
(lp885
S'SR:C07-MG:G06B{Quad:H2}Fld-SP'
p886
asg66
g28
(g29
g30
F1.4775670590444037
tRp887
(dp888
g33
I01
sg2
S'SR:C07-MG:G06B{Quad:H2}Fld-I'
p889
sbsg70
F204.649
sg71
F205.09700000000001
sba(iTunerUtils.knob
Knob
p890
(dp891
g24
F0
sg25
VG2
p892
sg27
g28
(g29
g30
F1.4776499999999999
tRp893
(dp894
g33
I01
sg2
S'SR:C08-MG:G02A{Quad:H2}Fld-SP'
p895
sbsg35
VQUAD
p896
sg37
g38
sg39
VQH2G2C08A
p897
sg41
VA
sg42
(lp898
VQUAD
p899
aVC08
p900
aVG2
p901
aVA
asg47
g48
sg49
I882
sg50
VQH2G2C08A
p902
sg2
VQH2G2C08A.value
p903
sg53
(lp904
S'SR:C08-MG:G02A{Quad:H2}Fld-I'
p905
asg56
Nsg57
Nsg58
I0
sg59
S''
sg60
VC08
p906
sg62
F0.44800000000000001
sg63
(lp907
S'SR:C08-MG:G02A{Quad:H2}Fld-SP'
p908
asg66
g28
(g29
g30
F1.4770650841920347
tRp909
(dp910
g33
I01
sg2
S'SR:C08-MG:G02A{Quad:H2}Fld-I'
p911
sbsg70
F217.28100000000001
sg71
F217.72900000000001
sba(iTunerUtils.knob
Knob
p912
(dp913
g24
F0
sg25
VG6
p914
sg27
g28
(g29
g30
F1.4776499999999999
tRp915
(dp916
g33
I01
sg2
S'SR:C09-MG:G06B{Quad:H2}Fld-SP'
p917
sbsg35
VQUAD
p918
sg37
g38
sg39
VQH2G6C09B
p919
sg41
VB
sg42
(lp920
VQUAD
p921
aVC09
p922
aVG6
p923
aVB
asg47
g48
sg49
I1063
sg50
VQH2G6C09B
p924
sg2
VQH2G6C09B.value
p925
sg53
(lp926
S'SR:C09-MG:G06B{Quad:H2}Fld-I'
p927
asg56
Nsg57
Nsg58
I0
sg59
S''
sg60
VC09
p928
sg62
F0.44800000000000001
sg63
(lp929
S'SR:C09-MG:G06B{Quad:H2}Fld-SP'
p930
asg66
g28
(g29
g30
F1.4776565725944151
tRp931
(dp932
g33
I01
sg2
S'SR:C09-MG:G06B{Quad:H2}Fld-I'
p933
sbsg70
F257.44600000000003
sg71
F257.89400000000001
sba(iTunerUtils.knob
Knob
p934
(dp935
g24
F0
sg25
VG2
p936
sg27
g28
(g29
g30
F1.4776499999999999
tRp937
(dp938
g33
I01
sg2
S'SR:C10-MG:G02A{Quad:H2}Fld-SP'
p939
sbsg35
VQUAD
p940
sg37
g38
sg39
VQH2G2C10A
p941
sg41
VA
sg42
(lp942
VQUAD
p943
aVC10
p944
aVG2
p945
aVA
asg47
g48
sg49
I1098
sg50
VQH2G2C10A
p946
sg2
VQH2G2C10A.value
p947
sg53
(lp948
S'SR:C10-MG:G02A{Quad:H2}Fld-I'
p949
asg56
Nsg57
Nsg58
I0
sg59
S''
sg60
VC10
p950
sg62
F0.44800000000000001
sg63
(lp951
S'SR:C10-MG:G02A{Quad:H2}Fld-SP'
p952
asg66
g28
(g29
g30
F1.4774552911181047
tRp953
(dp954
g33
I01
sg2
S'SR:C10-MG:G02A{Quad:H2}Fld-I'
p955
sbsg70
F270.07800000000003
sg71
F270.52600000000001
sba(iTunerUtils.knob
Knob
p956
(dp957
g24
F0
sg25
VG6
p958
sg27
g28
(g29
g30
F1.4776499999999999
tRp959
(dp960
g33
I01
sg2
S'SR:C11-MG:G06B{Quad:H2}Fld-SP'
p961
sbsg35
VQUAD
p962
sg37
g38
sg39
VQH2G6C11B
p963
sg41
VB
sg42
(lp964
VQUAD
p965
aVC11
p966
aVG6
p967
aVB
asg47
g48
sg49
I1279
sg50
VQH2G6C11B
p968
sg2
VQH2G6C11B.value
p969
sg53
(lp970
S'SR:C11-MG:G06B{Quad:H2}Fld-I'
p971
asg56
Nsg57
Nsg58
I0
sg59
S''
sg60
VC11
p972
sg62
F0.44800000000000001
sg63
(lp973
S'SR:C11-MG:G06B{Quad:H2}Fld-SP'
p974
asg66
g28
(g29
g30
F1.4776923329194322
tRp975
(dp976
g33
I01
sg2
S'SR:C11-MG:G06B{Quad:H2}Fld-I'
p977
sbsg70
F310.24299999999999
sg71
F310.69099999999997
sba(iTunerUtils.knob
Knob
p978
(dp979
g24
F0
sg25
VG2
p980
sg27
g28
(g29
g30
F1.4776499999999999
tRp981
(dp982
g33
I01
sg2
S'SR:C12-MG:G02A{Quad:H2}Fld-SP'
p983
sbsg35
VQUAD
p984
sg37
g38
sg39
VQH2G2C12A
p985
sg41
VA
sg42
(lp986
VQUAD
p987
aVC12
p988
aVG2
p989
aVA
asg47
g48
sg49
I1314
sg50
VQH2G2C12A
p990
sg2
VQH2G2C12A.value
p991
sg53
(lp992
S'SR:C12-MG:G02A{Quad:H2}Fld-I'
p993
asg56
Nsg57
Nsg58
I0
sg59
S''
sg60
VC12
p994
sg62
F0.44800000000000001
sg63
(lp995
S'SR:C12-MG:G02A{Quad:H2}Fld-SP'
p996
asg66
g28
(g29
g30
F1.4770543515850307
tRp997
(dp998
g33
I01
sg2
S'SR:C12-MG:G02A{Quad:H2}Fld-I'
p999
sbsg70
F322.875
sg71
F323.32299999999998
sba(iTunerUtils.knob
Knob
p1000
(dp1001
g24
F0
sg25
VG6
p1002
sg27
g28
(g29
g30
F1.4776499999999999
tRp1003
(dp1004
g33
I01
sg2
S'SR:C13-MG:G06B{Quad:H2}Fld-SP'
p1005
sbsg35
VQUAD
p1006
sg37
g38
sg39
VQH2G6C13B
p1007
sg41
VB
sg42
(lp1008
VQUAD
p1009
aVC13
p1010
aVG6
p1011
aVB
asg47
g48
sg49
I1495
sg50
VQH2G6C13B
p1012
sg2
VQH2G6C13B.value
p1013
sg53
(lp1014
S'SR:C13-MG:G06B{Quad:H2}Fld-I'
p1015
asg56
Nsg57
Nsg58
I0
sg59
S''
sg60
VC13
p1016
sg62
F0.44800000000000001
sg63
(lp1017
S'SR:C13-MG:G06B{Quad:H2}Fld-SP'
p1018
asg66
g28
(g29
g30
F1.4769153011913481
tRp1019
(dp1020
g33
I01
sg2
S'SR:C13-MG:G06B{Quad:H2}Fld-I'
p1021
sbsg70
F363.04000000000002
sg71
F363.488
sba(iTunerUtils.knob
Knob
p1022
(dp1023
g24
F0
sg25
VG2
p1024
sg27
g28
(g29
g30
F1.4776499999999999
tRp1025
(dp1026
g33
I01
sg2
S'SR:C14-MG:G02A{Quad:H2}Fld-SP'
p1027
sbsg35
VQUAD
p1028
sg37
g38
sg39
VQH2G2C14A
p1029
sg41
VA
sg42
(lp1030
VQUAD
p1031
aVC14
p1032
aVG2
p1033
aVA
asg47
g48
sg49
I1530
sg50
VQH2G2C14A
p1034
sg2
VQH2G2C14A.value
p1035
sg53
(lp1036
S'SR:C14-MG:G02A{Quad:H2}Fld-I'
p1037
asg56
Nsg57
Nsg58
I0
sg59
S''
sg60
VC14
p1038
sg62
F0.44800000000000001
sg63
(lp1039
S'SR:C14-MG:G02A{Quad:H2}Fld-SP'
p1040
asg66
g28
(g29
g30
F1.4770773049336232
tRp1041
(dp1042
g33
I01
sg2
S'SR:C14-MG:G02A{Quad:H2}Fld-I'
p1043
sbsg70
F375.67200000000003
sg71
F376.12
sba(iTunerUtils.knob
Knob
p1044
(dp1045
g24
F0
sg25
VG6
p1046
sg27
g28
(g29
g30
F1.4776499999999999
tRp1047
(dp1048
g33
I01
sg2
S'SR:C15-MG:G06B{Quad:H2}Fld-SP'
p1049
sbsg35
VQUAD
p1050
sg37
g38
sg39
VQH2G6C15B
p1051
sg41
VB
sg42
(lp1052
VQUAD
p1053
aVC15
p1054
aVG6
p1055
aVB
asg47
g48
sg49
I1711
sg50
VQH2G6C15B
p1056
sg2
VQH2G6C15B.value
p1057
sg53
(lp1058
S'SR:C15-MG:G06B{Quad:H2}Fld-I'
p1059
asg56
Nsg57
Nsg58
I0
sg59
S''
sg60
VC15
p1060
sg62
F0.44800000000000001
sg63
(lp1061
S'SR:C15-MG:G06B{Quad:H2}Fld-SP'
p1062
asg66
g28
(g29
g30
F1.4779604677145799
tRp1063
(dp1064
g33
I01
sg2
S'SR:C15-MG:G06B{Quad:H2}Fld-I'
p1065
sbsg70
F415.83800000000002
sg71
F416.286
sba(iTunerUtils.knob
Knob
p1066
(dp1067
g24
F0
sg25
VG2
p1068
sg27
g28
(g29
g30
F1.4776499999999999
tRp1069
(dp1070
g33
I01
sg2
S'SR:C16-MG:G02A{Quad:H2}Fld-SP'
p1071
sbsg35
VQUAD
p1072
sg37
g38
sg39
VQH2G2C16A
p1073
sg41
VA
sg42
(lp1074
VQUAD
p1075
aVC16
p1076
aVG2
p1077
aVA
asg47
g48
sg49
I1746
sg50
VQH2G2C16A
p1078
sg2
VQH2G2C16A.value
p1079
sg53
(lp1080
S'SR:C16-MG:G02A{Quad:H2}Fld-I'
p1081
asg56
Nsg57
Nsg58
I0
sg59
S''
sg60
VC16
p1082
sg62
F0.44800000000000001
sg63
(lp1083
S'SR:C16-MG:G02A{Quad:H2}Fld-SP'
p1084
asg66
g28
(g29
g30
F1.477053720255207
tRp1085
(dp1086
g33
I01
sg2
S'SR:C16-MG:G02A{Quad:H2}Fld-I'
p1087
sbsg70
F428.47000000000003
sg71
F428.91800000000001
sba(iTunerUtils.knob
Knob
p1088
(dp1089
g24
F0
sg25
VG6
p1090
sg27
g28
(g29
g30
F1.4776499999999999
tRp1091
(dp1092
g33
I01
sg2
S'SR:C17-MG:G06B{Quad:H2}Fld-SP'
p1093
sbsg35
VQUAD
p1094
sg37
g38
sg39
VQH2G6C17B
p1095
sg41
VB
sg42
(lp1096
VQUAD
p1097
aVC17
p1098
aVG6
p1099
aVB
asg47
g48
sg49
I1927
sg50
VQH2G6C17B
p1100
sg2
VQH2G6C17B.value
p1101
sg53
(lp1102
S'SR:C17-MG:G06B{Quad:H2}Fld-I'
p1103
asg56
Nsg57
Nsg58
I0
sg59
S''
sg60
VC17
p1104
sg62
F0.44800000000000001
sg63
(lp1105
S'SR:C17-MG:G06B{Quad:H2}Fld-SP'
p1106
asg66
g28
(g29
g30
F1.4781755257095444
tRp1107
(dp1108
g33
I01
sg2
S'SR:C17-MG:G06B{Quad:H2}Fld-I'
p1109
sbsg70
F468.63500000000005
sg71
F469.08300000000003
sba(iTunerUtils.knob
Knob
p1110
(dp1111
g24
F0
sg25
VG2
p1112
sg27
g28
(g29
g30
F1.4776499999999999
tRp1113
(dp1114
g33
I01
sg2
S'SR:C18-MG:G02A{Quad:H2}Fld-SP'
p1115
sbsg35
VQUAD
p1116
sg37
g38
sg39
VQH2G2C18A
p1117
sg41
VA
sg42
(lp1118
VQUAD
p1119
aVC18
p1120
aVG2
p1121
aVA
asg47
g48
sg49
I1962
sg50
VQH2G2C18A
p1122
sg2
VQH2G2C18A.value
p1123
sg53
(lp1124
S'SR:C18-MG:G02A{Quad:H2}Fld-I'
p1125
asg56
Nsg57
Nsg58
I0
sg59
S''
sg60
VC18
p1126
sg62
F0.44800000000000001
sg63
(lp1127
S'SR:C18-MG:G02A{Quad:H2}Fld-SP'
p1128
asg66
g28
(g29
g30
F1.4772289142813
tRp1129
(dp1130
g33
I01
sg2
S'SR:C18-MG:G02A{Quad:H2}Fld-I'
p1131
sbsg70
F481.267
sg71
F481.71499999999997
sba(iTunerUtils.knob
Knob
p1132
(dp1133
g24
F0
sg25
VG6
p1134
sg27
g28
(g29
g30
F1.4776499999999999
tRp1135
(dp1136
g33
I01
sg2
S'SR:C19-MG:G06B{Quad:H2}Fld-SP'
p1137
sbsg35
VQUAD
p1138
sg37
g38
sg39
VQH2G6C19B
p1139
sg41
VB
sg42
(lp1140
VQUAD
p1141
aVC19
p1142
aVG6
p1143
aVB
asg47
g48
sg49
I2143
sg50
VQH2G6C19B
p1144
sg2
VQH2G6C19B.value
p1145
sg53
(lp1146
S'SR:C19-MG:G06B{Quad:H2}Fld-I'
p1147
asg56
Nsg57
Nsg58
I0
sg59
S''
sg60
VC19
p1148
sg62
F0.44800000000000001
sg63
(lp1149
S'SR:C19-MG:G06B{Quad:H2}Fld-SP'
p1150
asg66
g28
(g29
g30
F1.4771939431185623
tRp1151
(dp1152
g33
I01
sg2
S'SR:C19-MG:G06B{Quad:H2}Fld-I'
p1153
sbsg70
F521.43200000000002
sg71
F521.88
sba(iTunerUtils.knob
Knob
p1154
(dp1155
g24
F0
sg25
VG2
p1156
sg27
g28
(g29
g30
F1.4776499999999999
tRp1157
(dp1158
g33
I01
sg2
S'SR:C20-MG:G02A{Quad:H2}Fld-SP'
p1159
sbsg35
VQUAD
p1160
sg37
g38
sg39
VQH2G2C20A
p1161
sg41
VA
sg42
(lp1162
VQUAD
p1163
aVC20
p1164
aVG2
p1165
aVA
asg47
g48
sg49
I2178
sg50
VQH2G2C20A
p1166
sg2
VQH2G2C20A.value
p1167
sg53
(lp1168
S'SR:C20-MG:G02A{Quad:H2}Fld-I'
p1169
asg56
Nsg57
Nsg58
I0
sg59
S''
sg60
VC20
p1170
sg62
F0.44800000000000001
sg63
(lp1171
S'SR:C20-MG:G02A{Quad:H2}Fld-SP'
p1172
asg66
g28
(g29
g30
F1.4780098241783015
tRp1173
(dp1174
g33
I01
sg2
S'SR:C20-MG:G02A{Quad:H2}Fld-I'
p1175
sbsg70
F534.06399999999996
sg71
F534.51199999999994
sba(iTunerUtils.knob
Knob
p1176
(dp1177
g24
F0
sg25
VG6
p1178
sg27
g28
(g29
g30
F1.4776499999999999
tRp1179
(dp1180
g33
I01
sg2
S'SR:C21-MG:G06B{Quad:H2}Fld-SP'
p1181
sbsg35
VQUAD
p1182
sg37
g38
sg39
VQH2G6C21B
p1183
sg41
VB
sg42
(lp1184
VQUAD
p1185
aVC21
p1186
aVG6
p1187
aVB
asg47
g48
sg49
I2359
sg50
VQH2G6C21B
p1188
sg2
VQH2G6C21B.value
p1189
sg53
(lp1190
S'SR:C21-MG:G06B{Quad:H2}Fld-I'
p1191
asg56
Nsg57
Nsg58
I0
sg59
S''
sg60
VC21
p1192
sg62
F0.44800000000000001
sg63
(lp1193
S'SR:C21-MG:G06B{Quad:H2}Fld-SP'
p1194
asg66
g28
(g29
g30
F1.4771196716742963
tRp1195
(dp1196
g33
I01
sg2
S'SR:C21-MG:G06B{Quad:H2}Fld-I'
p1197
sbsg70
F574.22900000000004
sg71
F574.67700000000002
sba(iTunerUtils.knob
Knob
p1198
(dp1199
g24
F0
sg25
VG2
p1200
sg27
g28
(g29
g30
F1.4776499999999999
tRp1201
(dp1202
g33
I01
sg2
S'SR:C22-MG:G02A{Quad:H2}Fld-SP'
p1203
sbsg35
VQUAD
p1204
sg37
g38
sg39
VQH2G2C22A
p1205
sg41
VA
sg42
(lp1206
VQUAD
p1207
aVC22
p1208
aVG2
p1209
aVA
asg47
g48
sg49
I2394
sg50
VQH2G2C22A
p1210
sg2
VQH2G2C22A.value
p1211
sg53
(lp1212
S'SR:C22-MG:G02A{Quad:H2}Fld-I'
p1213
asg56
Nsg57
Nsg58
I0
sg59
S''
sg60
VC22
p1214
sg62
F0.44800000000000001
sg63
(lp1215
S'SR:C22-MG:G02A{Quad:H2}Fld-SP'
p1216
asg66
g28
(g29
g30
F1.4779332077946896
tRp1217
(dp1218
g33
I01
sg2
S'SR:C22-MG:G02A{Quad:H2}Fld-I'
p1219
sbsg70
F586.86099999999999
sg71
F587.30899999999997
sba(iTunerUtils.knob
Knob
p1220
(dp1221
g24
F0
sg25
VG6
p1222
sg27
g28
(g29
g30
F1.4776499999999999
tRp1223
(dp1224
g33
I01
sg2
S'SR:C23-MG:G06B{Quad:H2}Fld-SP'
p1225
sbsg35
VQUAD
p1226
sg37
g38
sg39
VQH2G6C23B
p1227
sg41
VB
sg42
(lp1228
VQUAD
p1229
aVC23
p1230
aVG6
p1231
aVB
asg47
g48
sg49
I2575
sg50
VQH2G6C23B
p1232
sg2
VQH2G6C23B.value
p1233
sg53
(lp1234
S'SR:C23-MG:G06B{Quad:H2}Fld-I'
p1235
asg56
Nsg57
Nsg58
I0
sg59
S''
sg60
VC23
p1236
sg62
F0.44800000000000001
sg63
(lp1237
S'SR:C23-MG:G06B{Quad:H2}Fld-SP'
p1238
asg66
g28
(g29
g30
F1.4782788383257037
tRp1239
(dp1240
g33
I01
sg2
S'SR:C23-MG:G06B{Quad:H2}Fld-I'
p1241
sbsg70
F627.02600000000007
sg71
F627.47400000000005
sba(iTunerUtils.knob
Knob
p1242
(dp1243
g24
F0
sg25
VG2
p1244
sg27
g28
(g29
g30
F1.4776499999999999
tRp1245
(dp1246
g33
I01
sg2
S'SR:C24-MG:G02A{Quad:H2}Fld-SP'
p1247
sbsg35
VQUAD
p1248
sg37
g38
sg39
VQH2G2C24A
p1249
sg41
VA
sg42
(lp1250
VQUAD
p1251
aVC24
p1252
aVG2
p1253
aVA
asg47
g48
sg49
I2610
sg50
VQH2G2C24A
p1254
sg2
VQH2G2C24A.value
p1255
sg53
(lp1256
S'SR:C24-MG:G02A{Quad:H2}Fld-I'
p1257
asg56
Nsg57
Nsg58
I0
sg59
S''
sg60
VC24
p1258
sg62
F0.44800000000000001
sg63
(lp1259
S'SR:C24-MG:G02A{Quad:H2}Fld-SP'
p1260
asg66
g28
(g29
g30
F1.4775445340981919
tRp1261
(dp1262
g33
I01
sg2
S'SR:C24-MG:G02A{Quad:H2}Fld-I'
p1263
sbsg70
F639.65800000000002
sg71
F640.10599999999999
sba(iTunerUtils.knob
Knob
p1264
(dp1265
g24
F0
sg25
VG6
p1266
sg27
g28
(g29
g30
F1.4776499999999999
tRp1267
(dp1268
g33
I01
sg2
S'SR:C25-MG:G06B{Quad:H2}Fld-SP'
p1269
sbsg35
VQUAD
p1270
sg37
g38
sg39
VQH2G6C25B
p1271
sg41
VB
sg42
(lp1272
VQUAD
p1273
aVC25
p1274
aVG6
p1275
aVB
asg47
g48
sg49
I2791
sg50
VQH2G6C25B
p1276
sg2
VQH2G6C25B.value
p1277
sg53
(lp1278
S'SR:C25-MG:G06B{Quad:H2}Fld-I'
p1279
asg56
Nsg57
Nsg58
I0
sg59
S''
sg60
VC25
p1280
sg62
F0.44800000000000001
sg63
(lp1281
S'SR:C25-MG:G06B{Quad:H2}Fld-SP'
p1282
asg66
g28
(g29
g30
F1.4779267817589836
tRp1283
(dp1284
g33
I01
sg2
S'SR:C25-MG:G06B{Quad:H2}Fld-I'
p1285
sbsg70
F679.82400000000007
sg71
F680.27200000000005
sba(iTunerUtils.knob
Knob
p1286
(dp1287
g24
F0
sg25
VG2
p1288
sg27
g28
(g29
g30
F1.4776499999999999
tRp1289
(dp1290
g33
I01
sg2
S'SR:C26-MG:G02A{Quad:H2}Fld-SP'
p1291
sbsg35
VQUAD
p1292
sg37
g38
sg39
VQH2G2C26A
p1293
sg41
VA
sg42
(lp1294
VQUAD
p1295
aVC26
p1296
aVG2
p1297
aVA
asg47
g48
sg49
I2826
sg50
VQH2G2C26A
p1298
sg2
VQH2G2C26A.value
p1299
sg53
(lp1300
S'SR:C26-MG:G02A{Quad:H2}Fld-I'
p1301
asg56
Nsg57
Nsg58
I0
sg59
S''
sg60
VC26
p1302
sg62
F0.44800000000000001
sg63
(lp1303
S'SR:C26-MG:G02A{Quad:H2}Fld-SP'
p1304
asg66
g28
(g29
g30
F1.4773661834229801
tRp1305
(dp1306
g33
I01
sg2
S'SR:C26-MG:G02A{Quad:H2}Fld-I'
p1307
sbsg70
F692.45600000000002
sg71
F692.904
sba(iTunerUtils.knob
Knob
p1308
(dp1309
g24
F0
sg25
VG6
p1310
sg27
g28
(g29
g30
F1.4776499999999999
tRp1311
(dp1312
g33
I01
sg2
S'SR:C27-MG:G06B{Quad:H2}Fld-SP'
p1313
sbsg35
VQUAD
p1314
sg37
g38
sg39
VQH2G6C27B
p1315
sg41
VB
sg42
(lp1316
VQUAD
p1317
aVC27
p1318
aVG6
p1319
aVB
asg47
g48
sg49
I3007
sg50
VQH2G6C27B
p1320
sg2
VQH2G6C27B.value
p1321
sg53
(lp1322
S'SR:C27-MG:G06B{Quad:H2}Fld-I'
p1323
asg56
Nsg57
Nsg58
I0
sg59
S''
sg60
VC27
p1324
sg62
F0.44800000000000001
sg63
(lp1325
S'SR:C27-MG:G06B{Quad:H2}Fld-SP'
p1326
asg66
g28
(g29
g30
F1.4778211242034791
tRp1327
(dp1328
g33
I01
sg2
S'SR:C27-MG:G06B{Quad:H2}Fld-I'
p1329
sbsg70
F732.62099999999998
sg71
F733.06899999999996
sba(iTunerUtils.knob
Knob
p1330
(dp1331
g24
F0
sg25
VG2
p1332
sg27
g28
(g29
g30
F1.4776499999999999
tRp1333
(dp1334
g33
I01
sg2
S'SR:C28-MG:G02A{Quad:H2}Fld-SP'
p1335
sbsg35
VQUAD
p1336
sg37
g38
sg39
VQH2G2C28A
p1337
sg41
VA
sg42
(lp1338
VQUAD
p1339
aVC28
p1340
aVG2
p1341
aVA
asg47
g48
sg49
I3042
sg50
VQH2G2C28A
p1342
sg2
VQH2G2C28A.value
p1343
sg53
(lp1344
S'SR:C28-MG:G02A{Quad:H2}Fld-I'
p1345
asg56
Nsg57
Nsg58
I0
sg59
S''
sg60
VC28
p1346
sg62
F0.44800000000000001
sg63
(lp1347
S'SR:C28-MG:G02A{Quad:H2}Fld-SP'
p1348
asg66
g28
(g29
g30
F1.4773433202643624
tRp1349
(dp1350
g33
I01
sg2
S'SR:C28-MG:G02A{Quad:H2}Fld-I'
p1351
sbsg70
F745.25300000000004
sg71
F745.70100000000002
sba(iTunerUtils.knob
Knob
p1352
(dp1353
g24
F0
sg25
VG6
p1354
sg27
g28
(g29
g30
F1.4776499999999999
tRp1355
(dp1356
g33
I01
sg2
S'SR:C29-MG:G06B{Quad:H2}Fld-SP'
p1357
sbsg35
VQUAD
p1358
sg37
g38
sg39
VQH2G6C29B
p1359
sg41
VB
sg42
(lp1360
VQUAD
p1361
aVC29
p1362
aVG6
p1363
aVB
asg47
g48
sg49
I3227
sg50
VQH2G6C29B
p1364
sg2
VQH2G6C29B.value
p1365
sg53
(lp1366
S'SR:C29-MG:G06B{Quad:H2}Fld-I'
p1367
asg56
Nsg57
Nsg58
I0
sg59
S''
sg60
VC29
p1368
sg62
F0.44800000000000001
sg63
(lp1369
S'SR:C29-MG:G06B{Quad:H2}Fld-SP'
p1370
asg66
g28
(g29
g30
F1.4771170787125198
tRp1371
(dp1372
g33
I01
sg2
S'SR:C29-MG:G06B{Quad:H2}Fld-I'
p1373
sbsg70
F785.41800000000001
sg71
F785.86599999999999
sbasg2
S'QH2'
p1374
sg710
F0
sba(iTunerUtils.knob
KnobGroup
p1375
(dp1376
g20
(lp1377
(iTunerUtils.knob
Knob
p1378
(dp1379
g24
F0
sg25
VG2
p1380
sg27
g28
(g29
g30
F-1.7075499999999999
tRp1381
(dp1382
g33
I01
sg2
S'SR:C30-MG:G02A{Quad:H3}Fld-SP'
p1383
sbsg35
VQUAD
p1384
sg37
g38
sg39
VQH3G2C30A
p1385
sg41
VA
sg42
(lp1386
VQUAD
p1387
aVC30
p1388
aVG2
p1389
aVA
asg47
g48
sg49
I22
sg50
VQH3G2C30A
p1390
sg2
VQH3G2C30A.value
p1391
sg53
(lp1392
S'SR:C30-MG:G02A{Quad:H3}Fld-I'
p1393
asg56
Nsg57
Nsg58
I0
sg59
S''
sg60
VC30
p1394
sg62
F0.27500000000000002
sg63
(lp1395
S'SR:C30-MG:G02A{Quad:H3}Fld-SP'
p1396
asg66
g28
(g29
g30
F-1.7072044123075454
tRp1397
(dp1398
g33
I01
sg2
S'SR:C30-MG:G02A{Quad:H3}Fld-I'
p1399
sbsg70
F7.1124999999999998
sg71
F7.3875000000000002
sba(iTunerUtils.knob
Knob
p1400
(dp1401
g24
F0
sg25
VG6
p1402
sg27
g28
(g29
g30
F-1.7075499999999999
tRp1403
(dp1404
g33
I01
sg2
S'SR:C01-MG:G06B{Quad:H3}Fld-SP'
p1405
sbsg35
VQUAD
p1406
sg37
g38
sg39
VQH3G6C01B
p1407
sg41
VB
sg42
(lp1408
VQUAD
p1409
aVC01
p1410
aVG6
p1411
aVB
asg47
g48
sg49
I195
sg50
VQH3G6C01B
p1412
sg2
VQH3G6C01B.value
p1413
sg53
(lp1414
S'SR:C01-MG:G06B{Quad:H3}Fld-I'
p1415
asg56
Nsg57
Nsg58
I0
sg59
S''
sg60
VC01
p1416
sg62
F0.27500000000000002
sg63
(lp1417
S'SR:C01-MG:G06B{Quad:H3}Fld-SP'
p1418
asg66
g28
(g29
g30
F-1.7079907946459905
tRp1419
(dp1420
g33
I01
sg2
S'SR:C01-MG:G06B{Quad:H3}Fld-I'
p1421
sbsg70
F45.409700000000001
sg71
F45.684699999999999
sba(iTunerUtils.knob
Knob
p1422
(dp1423
g24
F0
sg25
VG2
p1424
sg27
g28
(g29
g30
F-1.7075499999999999
tRp1425
(dp1426
g33
I01
sg2
S'SR:C02-MG:G02A{Quad:H3}Fld-SP'
p1427
sbsg35
VQUAD
p1428
sg37
g38
sg39
VQH3G2C02A
p1429
sg41
VA
sg42
(lp1430
VQUAD
p1431
aVC02
p1432
aVG2
p1433
aVA
asg47
g48
sg49
I238
sg50
VQH3G2C02A
p1434
sg2
VQH3G2C02A.value
p1435
sg53
(lp1436
S'SR:C02-MG:G02A{Quad:H3}Fld-I'
p1437
asg56
Nsg57
Nsg58
I0
sg59
S''
sg60
VC02
p1438
sg62
F0.27500000000000002
sg63
(lp1439
S'SR:C02-MG:G02A{Quad:H3}Fld-SP'
p1440
asg66
g28
(g29
g30
F-1.7075223420412757
tRp1441
(dp1442
g33
I01
sg2
S'SR:C02-MG:G02A{Quad:H3}Fld-I'
p1443
sbsg70
F59.909700000000001
sg71
F60.184699999999999
sba(iTunerUtils.knob
Knob
p1444
(dp1445
g24
F0
sg25
VG6
p1446
sg27
g28
(g29
g30
F-1.7075499999999999
tRp1447
(dp1448
g33
I01
sg2
S'SR:C03-MG:G06B{Quad:H3}Fld-SP'
p1449
sbsg35
VQUAD
p1450
sg37
g38
sg39
VQH3G6C03B
p1451
sg41
VB
sg42
(lp1452
VQUAD
p1453
aVC03
p1454
aVG6
p1455
aVB
asg47
g48
sg49
I411
sg50
VQH3G6C03B
p1456
sg2
VQH3G6C03B.value
p1457
sg53
(lp1458
S'SR:C03-MG:G06B{Quad:H3}Fld-I'
p1459
asg56
Nsg57
Nsg58
I0
sg59
S''
sg60
VC03
p1460
sg62
F0.27500000000000002
sg63
(lp1461
S'SR:C03-MG:G06B{Quad:H3}Fld-SP'
p1462
asg66
g28
(g29
g30
F-1.7069994854631112
tRp1463
(dp1464
g33
I01
sg2
S'SR:C03-MG:G06B{Quad:H3}Fld-I'
p1465
sbsg70
F98.20689999999999
sg71
F98.481899999999996
sba(iTunerUtils.knob
Knob
p1466
(dp1467
g24
F0
sg25
VG2
p1468
sg27
g28
(g29
g30
F-1.7075499999999999
tRp1469
(dp1470
g33
I01
sg2
S'SR:C04-MG:G02A{Quad:H3}Fld-SP'
p1471
sbsg35
VQUAD
p1472
sg37
g38
sg39
VQH3G2C04A
p1473
sg41
VA
sg42
(lp1474
VQUAD
p1475
aVC04
p1476
aVG2
p1477
aVA
asg47
g48
sg49
I454
sg50
VQH3G2C04A
p1478
sg2
VQH3G2C04A.value
p1479
sg53
(lp1480
S'SR:C04-MG:G02A{Quad:H3}Fld-I'
p1481
asg56
Nsg57
Nsg58
I0
sg59
S''
sg60
VC04
p1482
sg62
F0.27500000000000002
sg63
(lp1483
S'SR:C04-MG:G02A{Quad:H3}Fld-SP'
p1484
asg66
g28
(g29
g30
F-1.7072828916025786
tRp1485
(dp1486
g33
I01
sg2
S'SR:C04-MG:G02A{Quad:H3}Fld-I'
p1487
sbsg70
F112.70699999999999
sg71
F112.982
sba(iTunerUtils.knob
Knob
p1488
(dp1489
g24
F0
sg25
VG6
p1490
sg27
g28
(g29
g30
F-1.7075499999999999
tRp1491
(dp1492
g33
I01
sg2
S'SR:C05-MG:G06B{Quad:H3}Fld-SP'
p1493
sbsg35
VQUAD
p1494
sg37
g38
sg39
VQH3G6C05B
p1495
sg41
VB
sg42
(lp1496
VQUAD
p1497
aVC05
p1498
aVG6
p1499
aVB
asg47
g48
sg49
I627
sg50
VQH3G6C05B
p1500
sg2
VQH3G6C05B.value
p1501
sg53
(lp1502
S'SR:C05-MG:G06B{Quad:H3}Fld-I'
p1503
asg56
Nsg57
Nsg58
I0
sg59
S''
sg60
VC05
p1504
sg62
F0.27500000000000002
sg63
(lp1505
S'SR:C05-MG:G06B{Quad:H3}Fld-SP'
p1506
asg66
g28
(g29
g30
F-1.7067264754852367
tRp1507
(dp1508
g33
I01
sg2
S'SR:C05-MG:G06B{Quad:H3}Fld-I'
p1509
sbsg70
F151.00399999999999
sg71
F151.279
sba(iTunerUtils.knob
Knob
p1510
(dp1511
g24
F0
sg25
VG2
p1512
sg27
g28
(g29
g30
F-1.7075499999999999
tRp1513
(dp1514
g33
I01
sg2
S'SR:C06-MG:G02A{Quad:H3}Fld-SP'
p1515
sbsg35
VQUAD
p1516
sg37
g38
sg39
VQH3G2C06A
p1517
sg41
VA
sg42
(lp1518
VQUAD
p1519
aVC06
p1520
aVG2
p1521
aVA
asg47
g48
sg49
I670
sg50
VQH3G2C06A
p1522
sg2
VQH3G2C06A.value
p1523
sg53
(lp1524
S'SR:C06-MG:G02A{Quad:H3}Fld-I'
p1525
asg56
Nsg57
Nsg58
I0
sg59
S''
sg60
VC06
p1526
sg62
F0.27500000000000002
sg63
(lp1527
S'SR:C06-MG:G02A{Quad:H3}Fld-SP'
p1528
asg66
g28
(g29
g30
F-1.7077033759529257
tRp1529
(dp1530
g33
I01
sg2
S'SR:C06-MG:G02A{Quad:H3}Fld-I'
p1531
sbsg70
F165.50399999999999
sg71
F165.779
sba(iTunerUtils.knob
Knob
p1532
(dp1533
g24
F0
sg25
VG6
p1534
sg27
g28
(g29
g30
F-1.7075499999999999
tRp1535
(dp1536
g33
I01
sg2
S'SR:C07-MG:G06B{Quad:H3}Fld-SP'
p1537
sbsg35
VQUAD
p1538
sg37
g38
sg39
VQH3G6C07B
p1539
sg41
VB
sg42
(lp1540
VQUAD
p1541
aVC07
p1542
aVG6
p1543
aVB
asg47
g48
sg49
I843
sg50
VQH3G6C07B
p1544
sg2
VQH3G6C07B.value
p1545
sg53
(lp1546
S'SR:C07-MG:G06B{Quad:H3}Fld-I'
p1547
asg56
Nsg57
Nsg58
I0
sg59
S''
sg60
VC07
p1548
sg62
F0.27500000000000002
sg63
(lp1549
S'SR:C07-MG:G06B{Quad:H3}Fld-SP'
p1550
asg66
g28
(g29
g30
F-1.7083757392359042
tRp1551
(dp1552
g33
I01
sg2
S'SR:C07-MG:G06B{Quad:H3}Fld-I'
p1553
sbsg70
F203.80099999999999
sg71
F204.07599999999999
sba(iTunerUtils.knob
Knob
p1554
(dp1555
g24
F0
sg25
VG2
p1556
sg27
g28
(g29
g30
F-1.7075499999999999
tRp1557
(dp1558
g33
I01
sg2
S'SR:C08-MG:G02A{Quad:H3}Fld-SP'
p1559
sbsg35
VQUAD
p1560
sg37
g38
sg39
VQH3G2C08A
p1561
sg41
VA
sg42
(lp1562
VQUAD
p1563
aVC08
p1564
aVG2
p1565
aVA
asg47
g48
sg49
I886
sg50
VQH3G2C08A
p1566
sg2
VQH3G2C08A.value
p1567
sg53
(lp1568
S'SR:C08-MG:G02A{Quad:H3}Fld-I'
p1569
asg56
Nsg57
Nsg58
I0
sg59
S''
sg60
VC08
p1570
sg62
F0.27500000000000002
sg63
(lp1571
S'SR:C08-MG:G02A{Quad:H3}Fld-SP'
p1572
asg66
g28
(g29
g30
F-1.7069861710807199
tRp1573
(dp1574
g33
I01
sg2
S'SR:C08-MG:G02A{Quad:H3}Fld-I'
p1575
sbsg70
F218.30099999999999
sg71
F218.57599999999999
sba(iTunerUtils.knob
Knob
p1576
(dp1577
g24
F0
sg25
VG6
p1578
sg27
g28
(g29
g30
F-1.7075499999999999
tRp1579
(dp1580
g33
I01
sg2
S'SR:C09-MG:G06B{Quad:H3}Fld-SP'
p1581
sbsg35
VQUAD
p1582
sg37
g38
sg39
VQH3G6C09B
p1583
sg41
VB
sg42
(lp1584
VQUAD
p1585
aVC09
p1586
aVG6
p1587
aVB
asg47
g48
sg49
I1059
sg50
VQH3G6C09B
p1588
sg2
VQH3G6C09B.value
p1589
sg53
(lp1590
S'SR:C09-MG:G06B{Quad:H3}Fld-I'
p1591
asg56
Nsg57
Nsg58
I0
sg59
S''
sg60
VC09
p1592
sg62
F0.27500000000000002
sg63
(lp1593
S'SR:C09-MG:G06B{Quad:H3}Fld-SP'
p1594
asg66
g28
(g29
g30
F-1.7072547776718545
tRp1595
(dp1596
g33
I01
sg2
S'SR:C09-MG:G06B{Quad:H3}Fld-I'
p1597
sbsg70
F256.59800000000001
sg71
F256.87299999999999
sba(iTunerUtils.knob
Knob
p1598
(dp1599
g24
F0
sg25
VG2
p1600
sg27
g28
(g29
g30
F-1.7075499999999999
tRp1601
(dp1602
g33
I01
sg2
S'SR:C10-MG:G02A{Quad:H3}Fld-SP'
p1603
sbsg35
VQUAD
p1604
sg37
g38
sg39
VQH3G2C10A
p1605
sg41
VA
sg42
(lp1606
VQUAD
p1607
aVC10
p1608
aVG2
p1609
aVA
asg47
g48
sg49
I1102
sg50
VQH3G2C10A
p1610
sg2
VQH3G2C10A.value
p1611
sg53
(lp1612
S'SR:C10-MG:G02A{Quad:H3}Fld-I'
p1613
asg56
Nsg57
Nsg58
I0
sg59
S''
sg60
VC10
p1614
sg62
F0.27500000000000002
sg63
(lp1615
S'SR:C10-MG:G02A{Quad:H3}Fld-SP'
p1616
asg66
g28
(g29
g30
F-1.7082162532581826
tRp1617
(dp1618
g33
I01
sg2
S'SR:C10-MG:G02A{Quad:H3}Fld-I'
p1619
sbsg70
F271.09800000000001
sg71
F271.37299999999999
sba(iTunerUtils.knob
Knob
p1620
(dp1621
g24
F0
sg25
VG6
p1622
sg27
g28
(g29
g30
F-1.7075499999999999
tRp1623
(dp1624
g33
I01
sg2
S'SR:C11-MG:G06B{Quad:H3}Fld-SP'
p1625
sbsg35
VQUAD
p1626
sg37
g38
sg39
VQH3G6C11B
p1627
sg41
VB
sg42
(lp1628
VQUAD
p1629
aVC11
p1630
aVG6
p1631
aVB
asg47
g48
sg49
I1275
sg50
VQH3G6C11B
p1632
sg2
VQH3G6C11B.value
p1633
sg53
(lp1634
S'SR:C11-MG:G06B{Quad:H3}Fld-I'
p1635
asg56
Nsg57
Nsg58
I0
sg59
S''
sg60
VC11
p1636
sg62
F0.27500000000000002
sg63
(lp1637
S'SR:C11-MG:G06B{Quad:H3}Fld-SP'
p1638
asg66
g28
(g29
g30
F-1.7083562496898603
tRp1639
(dp1640
g33
I01
sg2
S'SR:C11-MG:G06B{Quad:H3}Fld-I'
p1641
sbsg70
F309.39600000000002
sg71
F309.67099999999999
sba(iTunerUtils.knob
Knob
p1642
(dp1643
g24
F0
sg25
VG2
p1644
sg27
g28
(g29
g30
F-1.7075499999999999
tRp1645
(dp1646
g33
I01
sg2
S'SR:C12-MG:G02A{Quad:H3}Fld-SP'
p1647
sbsg35
VQUAD
p1648
sg37
g38
sg39
VQH3G2C12A
p1649
sg41
VA
sg42
(lp1650
VQUAD
p1651
aVC12
p1652
aVG2
p1653
aVA
asg47
g48
sg49
I1318
sg50
VQH3G2C12A
p1654
sg2
VQH3G2C12A.value
p1655
sg53
(lp1656
S'SR:C12-MG:G02A{Quad:H3}Fld-I'
p1657
asg56
Nsg57
Nsg58
I0
sg59
S''
sg60
VC12
p1658
sg62
F0.27500000000000002
sg63
(lp1659
S'SR:C12-MG:G02A{Quad:H3}Fld-SP'
p1660
asg66
g28
(g29
g30
F-1.7067678256317234
tRp1661
(dp1662
g33
I01
sg2
S'SR:C12-MG:G02A{Quad:H3}Fld-I'
p1663
sbsg70
F323.89600000000002
sg71
F324.17099999999999
sba(iTunerUtils.knob
Knob
p1664
(dp1665
g24
F0
sg25
VG6
p1666
sg27
g28
(g29
g30
F-1.7075499999999999
tRp1667
(dp1668
g33
I01
sg2
S'SR:C13-MG:G06B{Quad:H3}Fld-SP'
p1669
sbsg35
VQUAD
p1670
sg37
g38
sg39
VQH3G6C13B
p1671
sg41
VB
sg42
(lp1672
VQUAD
p1673
aVC13
p1674
aVG6
p1675
aVB
asg47
g48
sg49
I1491
sg50
VQH3G6C13B
p1676
sg2
VQH3G6C13B.value
p1677
sg53
(lp1678
S'SR:C13-MG:G06B{Quad:H3}Fld-I'
p1679
asg56
Nsg57
Nsg58
I0
sg59
S''
sg60
VC13
p1680
sg62
F0.27500000000000002
sg63
(lp1681
S'SR:C13-MG:G06B{Quad:H3}Fld-SP'
p1682
asg66
g28
(g29
g30
F-1.7077880825226979
tRp1683
(dp1684
g33
I01
sg2
S'SR:C13-MG:G06B{Quad:H3}Fld-I'
p1685
sbsg70
F362.19300000000004
sg71
F362.46800000000002
sba(iTunerUtils.knob
Knob
p1686
(dp1687
g24
F0
sg25
VG2
p1688
sg27
g28
(g29
g30
F-1.7075499999999999
tRp1689
(dp1690
g33
I01
sg2
S'SR:C14-MG:G02A{Quad:H3}Fld-SP'
p1691
sbsg35
VQUAD
p1692
sg37
g38
sg39
VQH3G2C14A
p1693
sg41
VA
sg42
(lp1694
VQUAD
p1695
aVC14
p1696
aVG2
p1697
aVA
asg47
g48
sg49
I1534
sg50
VQH3G2C14A
p1698
sg2
VQH3G2C14A.value
p1699
sg53
(lp1700
S'SR:C14-MG:G02A{Quad:H3}Fld-I'
p1701
asg56
Nsg57
Nsg58
I0
sg59
S''
sg60
VC14
p1702
sg62
F0.27500000000000002
sg63
(lp1703
S'SR:C14-MG:G02A{Quad:H3}Fld-SP'
p1704
asg66
g28
(g29
g30
F-1.7067397377565423
tRp1705
(dp1706
g33
I01
sg2
S'SR:C14-MG:G02A{Quad:H3}Fld-I'
p1707
sbsg70
F376.69300000000004
sg71
F376.96800000000002
sba(iTunerUtils.knob
Knob
p1708
(dp1709
g24
F0
sg25
VG6
p1710
sg27
g28
(g29
g30
F-1.7075499999999999
tRp1711
(dp1712
g33
I01
sg2
S'SR:C15-MG:G06B{Quad:H3}Fld-SP'
p1713
sbsg35
VQUAD
p1714
sg37
g38
sg39
VQH3G6C15B
p1715
sg41
VB
sg42
(lp1716
VQUAD
p1717
aVC15
p1718
aVG6
p1719
aVB
asg47
g48
sg49
I1707
sg50
VQH3G6C15B
p1720
sg2
VQH3G6C15B.value
p1721
sg53
(lp1722
S'SR:C15-MG:G06B{Quad:H3}Fld-I'
p1723
asg56
Nsg57
Nsg58
I0
sg59
S''
sg60
VC15
p1724
sg62
F0.27500000000000002
sg63
(lp1725
S'SR:C15-MG:G06B{Quad:H3}Fld-SP'
p1726
asg66
g28
(g29
g30
F-1.7083551032459756
tRp1727
(dp1728
g33
I01
sg2
S'SR:C15-MG:G06B{Quad:H3}Fld-I'
p1729
sbsg70
F414.99000000000001
sg71
F415.26499999999999
sba(iTunerUtils.knob
Knob
p1730
(dp1731
g24
F0
sg25
VG2
p1732
sg27
g28
(g29
g30
F-1.7075499999999999
tRp1733
(dp1734
g33
I01
sg2
S'SR:C16-MG:G02A{Quad:H3}Fld-SP'
p1735
sbsg35
VQUAD
p1736
sg37
g38
sg39
VQH3G2C16A
p1737
sg41
VA
sg42
(lp1738
VQUAD
p1739
aVC16
p1740
aVG2
p1741
aVA
asg47
g48
sg49
I1750
sg50
VQH3G2C16A
p1742
sg2
VQH3G2C16A.value
p1743
sg53
(lp1744
S'SR:C16-MG:G02A{Quad:H3}Fld-I'
p1745
asg56
Nsg57
Nsg58
I0
sg59
S''
sg60
VC16
p1746
sg62
F0.27500000000000002
sg63
(lp1747
S'SR:C16-MG:G02A{Quad:H3}Fld-SP'
p1748
asg66
g28
(g29
g30
F-1.7083621121869994
tRp1749
(dp1750
g33
I01
sg2
S'SR:C16-MG:G02A{Quad:H3}Fld-I'
p1751
sbsg70
F429.49000000000001
sg71
F429.76499999999999
sba(iTunerUtils.knob
Knob
p1752
(dp1753
g24
F0
sg25
VG6
p1754
sg27
g28
(g29
g30
F-1.7075499999999999
tRp1755
(dp1756
g33
I01
sg2
S'SR:C17-MG:G06B{Quad:H3}Fld-SP'
p1757
sbsg35
VQUAD
p1758
sg37
g38
sg39
VQH3G6C17B
p1759
sg41
VB
sg42
(lp1760
VQUAD
p1761
aVC17
p1762
aVG6
p1763
aVB
asg47
g48
sg49
I1923
sg50
VQH3G6C17B
p1764
sg2
VQH3G6C17B.value
p1765
sg53
(lp1766
S'SR:C17-MG:G06B{Quad:H3}Fld-I'
p1767
asg56
Nsg57
Nsg58
I0
sg59
S''
sg60
VC17
p1768
sg62
F0.27500000000000002
sg63
(lp1769
S'SR:C17-MG:G06B{Quad:H3}Fld-SP'
p1770
asg66
g28
(g29
g30
F-1.7078194533962769
tRp1771
(dp1772
g33
I01
sg2
S'SR:C17-MG:G06B{Quad:H3}Fld-I'
p1773
sbsg70
F467.78700000000003
sg71
F468.06200000000001
sba(iTunerUtils.knob
Knob
p1774
(dp1775
g24
F0
sg25
VG2
p1776
sg27
g28
(g29
g30
F-1.7075499999999999
tRp1777
(dp1778
g33
I01
sg2
S'SR:C18-MG:G02A{Quad:H3}Fld-SP'
p1779
sbsg35
VQUAD
p1780
sg37
g38
sg39
VQH3G2C18A
p1781
sg41
VA
sg42
(lp1782
VQUAD
p1783
aVC18
p1784
aVG2
p1785
aVA
asg47
g48
sg49
I1966
sg50
VQH3G2C18A
p1786
sg2
VQH3G2C18A.value
p1787
sg53
(lp1788
S'SR:C18-MG:G02A{Quad:H3}Fld-I'
p1789
asg56
Nsg57
Nsg58
I0
sg59
S''
sg60
VC18
p1790
sg62
F0.27500000000000002
sg63
(lp1791
S'SR:C18-MG:G02A{Quad:H3}Fld-SP'
p1792
asg66
g28
(g29
g30
F-1.7073560034557869
tRp1793
(dp1794
g33
I01
sg2
S'SR:C18-MG:G02A{Quad:H3}Fld-I'
p1795
sbsg70
F482.28700000000003
sg71
F482.56200000000001
sba(iTunerUtils.knob
Knob
p1796
(dp1797
g24
F0
sg25
VG6
p1798
sg27
g28
(g29
g30
F-1.7075499999999999
tRp1799
(dp1800
g33
I01
sg2
S'SR:C19-MG:G06B{Quad:H3}Fld-SP'
p1801
sbsg35
VQUAD
p1802
sg37
g38
sg39
VQH3G6C19B
p1803
sg41
VB
sg42
(lp1804
VQUAD
p1805
aVC19
p1806
aVG6
p1807
aVB
asg47
g48
sg49
I2139
sg50
VQH3G6C19B
p1808
sg2
VQH3G6C19B.value
p1809
sg53
(lp1810
S'SR:C19-MG:G06B{Quad:H3}Fld-I'
p1811
asg56
Nsg57
Nsg58
I0
sg59
S''
sg60
VC19
p1812
sg62
F0.27500000000000002
sg63
(lp1813
S'SR:C19-MG:G06B{Quad:H3}Fld-SP'
p1814
asg66
g28
(g29
g30
F-1.7076519162558172
tRp1815
(dp1816
g33
I01
sg2
S'SR:C19-MG:G06B{Quad:H3}Fld-I'
p1817
sbsg70
F520.58400000000006
sg71
F520.85900000000004
sba(iTunerUtils.knob
Knob
p1818
(dp1819
g24
F0
sg25
VG2
p1820
sg27
g28
(g29
g30
F-1.7075499999999999
tRp1821
(dp1822
g33
I01
sg2
S'SR:C20-MG:G02A{Quad:H3}Fld-SP'
p1823
sbsg35
VQUAD
p1824
sg37
g38
sg39
VQH3G2C20A
p1825
sg41
VA
sg42
(lp1826
VQUAD
p1827
aVC20
p1828
aVG2
p1829
aVA
asg47
g48
sg49
I2182
sg50
VQH3G2C20A
p1830
sg2
VQH3G2C20A.value
p1831
sg53
(lp1832
S'SR:C20-MG:G02A{Quad:H3}Fld-I'
p1833
asg56
Nsg57
Nsg58
I0
sg59
S''
sg60
VC20
p1834
sg62
F0.27500000000000002
sg63
(lp1835
S'SR:C20-MG:G02A{Quad:H3}Fld-SP'
p1836
asg66
g28
(g29
g30
F-1.7079536654974441
tRp1837
(dp1838
g33
I01
sg2
S'SR:C20-MG:G02A{Quad:H3}Fld-I'
p1839
sbsg70
F535.08500000000004
sg71
F535.36000000000001
sba(iTunerUtils.knob
Knob
p1840
(dp1841
g24
F0
sg25
VG6
p1842
sg27
g28
(g29
g30
F-1.7075499999999999
tRp1843
(dp1844
g33
I01
sg2
S'SR:C21-MG:G06B{Quad:H3}Fld-SP'
p1845
sbsg35
VQUAD
p1846
sg37
g38
sg39
VQH3G6C21B
p1847
sg41
VB
sg42
(lp1848
VQUAD
p1849
aVC21
p1850
aVG6
p1851
aVB
asg47
g48
sg49
I2355
sg50
VQH3G6C21B
p1852
sg2
VQH3G6C21B.value
p1853
sg53
(lp1854
S'SR:C21-MG:G06B{Quad:H3}Fld-I'
p1855
asg56
Nsg57
Nsg58
I0
sg59
S''
sg60
VC21
p1856
sg62
F0.27500000000000002
sg63
(lp1857
S'SR:C21-MG:G06B{Quad:H3}Fld-SP'
p1858
asg66
g28
(g29
g30
F-1.7081226356927595
tRp1859
(dp1860
g33
I01
sg2
S'SR:C21-MG:G06B{Quad:H3}Fld-I'
p1861
sbsg70
F573.38200000000006
sg71
F573.65700000000004
sba(iTunerUtils.knob
Knob
p1862
(dp1863
g24
F0
sg25
VG2
p1864
sg27
g28
(g29
g30
F-1.7075499999999999
tRp1865
(dp1866
g33
I01
sg2
S'SR:C22-MG:G02A{Quad:H3}Fld-SP'
p1867
sbsg35
VQUAD
p1868
sg37
g38
sg39
VQH3G2C22A
p1869
sg41
VA
sg42
(lp1870
VQUAD
p1871
aVC22
p1872
aVG2
p1873
aVA
asg47
g48
sg49
I2398
sg50
VQH3G2C22A
p1874
sg2
VQH3G2C22A.value
p1875
sg53
(lp1876
S'SR:C22-MG:G02A{Quad:H3}Fld-I'
p1877
asg56
Nsg57
Nsg58
I0
sg59
S''
sg60
VC22
p1878
sg62
F0.27500000000000002
sg63
(lp1879
S'SR:C22-MG:G02A{Quad:H3}Fld-SP'
p1880
asg66
g28
(g29
g30
F-1.7068900261276416
tRp1881
(dp1882
g33
I01
sg2
S'SR:C22-MG:G02A{Quad:H3}Fld-I'
p1883
sbsg70
F587.88200000000006
sg71
F588.15700000000004
sba(iTunerUtils.knob
Knob
p1884
(dp1885
g24
F0
sg25
VG6
p1886
sg27
g28
(g29
g30
F-1.7075499999999999
tRp1887
(dp1888
g33
I01
sg2
S'SR:C23-MG:G06B{Quad:H3}Fld-SP'
p1889
sbsg35
VQUAD
p1890
sg37
g38
sg39
VQH3G6C23B
p1891
sg41
VB
sg42
(lp1892
VQUAD
p1893
aVC23
p1894
aVG6
p1895
aVB
asg47
g48
sg49
I2571
sg50
VQH3G6C23B
p1896
sg2
VQH3G6C23B.value
p1897
sg53
(lp1898
S'SR:C23-MG:G06B{Quad:H3}Fld-I'
p1899
asg56
Nsg57
Nsg58
I0
sg59
S''
sg60
VC23
p1900
sg62
F0.27500000000000002
sg63
(lp1901
S'SR:C23-MG:G06B{Quad:H3}Fld-SP'
p1902
asg66
g28
(g29
g30
F-1.7068069871126115
tRp1903
(dp1904
g33
I01
sg2
S'SR:C23-MG:G06B{Quad:H3}Fld-I'
p1905
sbsg70
F626.17899999999997
sg71
F626.45399999999995
sba(iTunerUtils.knob
Knob
p1906
(dp1907
g24
F0
sg25
VG2
p1908
sg27
g28
(g29
g30
F-1.7075499999999999
tRp1909
(dp1910
g33
I01
sg2
S'SR:C24-MG:G02A{Quad:H3}Fld-SP'
p1911
sbsg35
VQUAD
p1912
sg37
g38
sg39
VQH3G2C24A
p1913
sg41
VA
sg42
(lp1914
VQUAD
p1915
aVC24
p1916
aVG2
p1917
aVA
asg47
g48
sg49
I2614
sg50
VQH3G2C24A
p1918
sg2
VQH3G2C24A.value
p1919
sg53
(lp1920
S'SR:C24-MG:G02A{Quad:H3}Fld-I'
p1921
asg56
Nsg57
Nsg58
I0
sg59
S''
sg60
VC24
p1922
sg62
F0.27500000000000002
sg63
(lp1923
S'SR:C24-MG:G02A{Quad:H3}Fld-SP'
p1924
asg66
g28
(g29
g30
F-1.7081305305222401
tRp1925
(dp1926
g33
I01
sg2
S'SR:C24-MG:G02A{Quad:H3}Fld-I'
p1927
sbsg70
F640.67899999999997
sg71
F640.95399999999995
sba(iTunerUtils.knob
Knob
p1928
(dp1929
g24
F0
sg25
VG6
p1930
sg27
g28
(g29
g30
F-1.7075499999999999
tRp1931
(dp1932
g33
I01
sg2
S'SR:C25-MG:G06B{Quad:H3}Fld-SP'
p1933
sbsg35
VQUAD
p1934
sg37
g38
sg39
VQH3G6C25B
p1935
sg41
VB
sg42
(lp1936
VQUAD
p1937
aVC25
p1938
aVG6
p1939
aVB
asg47
g48
sg49
I2787
sg50
VQH3G6C25B
p1940
sg2
VQH3G6C25B.value
p1941
sg53
(lp1942
S'SR:C25-MG:G06B{Quad:H3}Fld-I'
p1943
asg56
Nsg57
Nsg58
I0
sg59
S''
sg60
VC25
p1944
sg62
F0.27500000000000002
sg63
(lp1945
S'SR:C25-MG:G06B{Quad:H3}Fld-SP'
p1946
asg66
g28
(g29
g30
F-1.7073369047428855
tRp1947
(dp1948
g33
I01
sg2
S'SR:C25-MG:G06B{Quad:H3}Fld-I'
p1949
sbsg70
F678.976
sg71
F679.25099999999998
sba(iTunerUtils.knob
Knob
p1950
(dp1951
g24
F0
sg25
VG2
p1952
sg27
g28
(g29
g30
F-1.7075499999999999
tRp1953
(dp1954
g33
I01
sg2
S'SR:C26-MG:G02A{Quad:H3}Fld-SP'
p1955
sbsg35
VQUAD
p1956
sg37
g38
sg39
VQH3G2C26A
p1957
sg41
VA
sg42
(lp1958
VQUAD
p1959
aVC26
p1960
aVG2
p1961
aVA
asg47
g48
sg49
I2830
sg50
VQH3G2C26A
p1962
sg2
VQH3G2C26A.value
p1963
sg53
(lp1964
S'SR:C26-MG:G02A{Quad:H3}Fld-I'
p1965
asg56
Nsg57
Nsg58
I0
sg59
S''
sg60
VC26
p1966
sg62
F0.27500000000000002
sg63
(lp1967
S'SR:C26-MG:G02A{Quad:H3}Fld-SP'
p1968
asg66
g28
(g29
g30
F-1.7068626156965743
tRp1969
(dp1970
g33
I01
sg2
S'SR:C26-MG:G02A{Quad:H3}Fld-I'
p1971
sbsg70
F693.476
sg71
F693.75099999999998
sba(iTunerUtils.knob
Knob
p1972
(dp1973
g24
F0
sg25
VG6
p1974
sg27
g28
(g29
g30
F-1.7075499999999999
tRp1975
(dp1976
g33
I01
sg2
S'SR:C27-MG:G06B{Quad:H3}Fld-SP'
p1977
sbsg35
VQUAD
p1978
sg37
g38
sg39
VQH3G6C27B
p1979
sg41
VB
sg42
(lp1980
VQUAD
p1981
aVC27
p1982
aVG6
p1983
aVB
asg47
g48
sg49
I3003
sg50
VQH3G6C27B
p1984
sg2
VQH3G6C27B.value
p1985
sg53
(lp1986
S'SR:C27-MG:G06B{Quad:H3}Fld-I'
p1987
asg56
Nsg57
Nsg58
I0
sg59
S''
sg60
VC27
p1988
sg62
F0.27500000000000002
sg63
(lp1989
S'SR:C27-MG:G06B{Quad:H3}Fld-SP'
p1990
asg66
g28
(g29
g30
F-1.7076612962512399
tRp1991
(dp1992
g33
I01
sg2
S'SR:C27-MG:G06B{Quad:H3}Fld-I'
p1993
sbsg70
F731.77300000000002
sg71
F732.048
sba(iTunerUtils.knob
Knob
p1994
(dp1995
g24
F0
sg25
VG2
p1996
sg27
g28
(g29
g30
F-1.7075499999999999
tRp1997
(dp1998
g33
I01
sg2
S'SR:C28-MG:G02A{Quad:H3}Fld-SP'
p1999
sbsg35
VQUAD
p2000
sg37
g38
sg39
VQH3G2C28A
p2001
sg41
VA
sg42
(lp2002
VQUAD
p2003
aVC28
p2004
aVG2
p2005
aVA
asg47
g48
sg49
I3046
sg50
VQH3G2C28A
p2006
sg2
VQH3G2C28A.value
p2007
sg53
(lp2008
S'SR:C28-MG:G02A{Quad:H3}Fld-I'
p2009
asg56
Nsg57
Nsg58
I0
sg59
S''
sg60
VC28
p2010
sg62
F0.27500000000000002
sg63
(lp2011
S'SR:C28-MG:G02A{Quad:H3}Fld-SP'
p2012
asg66
g28
(g29
g30
F-1.7076387060955975
tRp2013
(dp2014
g33
I01
sg2
S'SR:C28-MG:G02A{Quad:H3}Fld-I'
p2015
sbsg70
F746.27300000000002
sg71
F746.548
sba(iTunerUtils.knob
Knob
p2016
(dp2017
g24
F0
sg25
VG6
p2018
sg27
g28
(g29
g30
F-1.7075499999999999
tRp2019
(dp2020
g33
I01
sg2
S'SR:C29-MG:G06B{Quad:H3}Fld-SP'
p2021
sbsg35
VQUAD
p2022
sg37
g38
sg39
VQH3G6C29B
p2023
sg41
VB
sg42
(lp2024
VQUAD
p2025
aVC29
p2026
aVG6
p2027
aVB
asg47
g48
sg49
I3223
sg50
VQH3G6C29B
p2028
sg2
VQH3G6C29B.value
p2029
sg53
(lp2030
S'SR:C29-MG:G06B{Quad:H3}Fld-I'
p2031
asg56
Nsg57
Nsg58
I0
sg59
S''
sg60
VC29
p2032
sg62
F0.27500000000000002
sg63
(lp2033
S'SR:C29-MG:G06B{Quad:H3}Fld-SP'
p2034
asg66
g28
(g29
g30
F-1.7075916497852293
tRp2035
(dp2036
g33
I01
sg2
S'SR:C29-MG:G06B{Quad:H3}Fld-I'
p2037
sbsg70
F784.57100000000003
sg71
F784.846
sbasg2
S'QH3'
p2038
sg710
F0
sbasS'refStepSize'
p2039
F0.001
sS'weight_list'
p2040
(lp2041
F1
aF0
aF0
asS'ref_index'
p2042
I0
sS'normalized_weight_list'
p2043
(lp2044
F1
aF0
aF0
asS'step_size_list'
p2045
(lp2046
F0.001
aF0
aF0
asbsS'preferences'
p2047
(dp2048
g10
F1321327664.5644169
sg8
g9
sS'TunerGUI'
p2049
(dp2050
S'visible_column_name_list'
p2051
(lp2052
S'Group Name'
p2053
aS'Knob Name'
p2054
aS'Reading'
p2055
aS'Setpoint'
p2056
aS'Weight'
p2057
aS'Step Size'
p2058
aS'Start Read'
p2059
aS'Start Setp'
p2060
asss.