(dp1
S'name'
p2
csip
_unpickle_type
p3
(S'PyQt4.QtCore'
p4
S'QString'
(Vlocal bump
p5
ttRp6
sS'config_description'
p7
S''
sS'version'
p8
S'0.1.0'
p9
sS'time_stamp'
p10
F1320805192.057451
sS'data'
p11
(iTunerUtils.knob
KnobGroupList
p12
(dp13
S'refKnobGroupName'
p14
S'CYHG2C30A.y'
p15
sS'knobGroups'
p16
(lp17
(iTunerUtils.knob
KnobGroup
p18
(dp19
S'knobs'
p20
(lp21
(iTunerUtils.knob
Knob
p22
(dp23
S'symmetry'
p24
VA
sS'sequence'
p25
(I0
I0
tp26
sS'index'
p27
I16
sS'group'
p28
(lp29
VVCOR
p30
aVC30
p31
aVG2
p32
aVA
asS'family'
p33
VVCOR
p34
sS'pvrb_val_time_stamp'
p35
NsS'virtual'
p36
I0
sS'pv_unit'
p37
S''
sS'pvsp'
p38
(lp39
S'SR:C30-MG:G02A{VCor:H}Fld-SP'
p40
asS'phylen'
p41
F0
sS'girder'
p42
VG2
p43
sS'pvsp_val'
p44
ccopy_reg
_reconstructor
p45
(ccothread.dbr
ca_float
p46
c__builtin__
float
p47
F3.3881317890172014e-21
tRp48
(dp49
S'ok'
p50
I01
sg2
S'SR:C30-MG:G02A{VCor:H}Fld-SP'
p51
sbsS'pvrb_val'
p52
g45
(g46
g47
F3.3880442874828624e-21
tRp53
(dp54
g50
I01
sg2
S'SR:C30-MG:G02A{VCor:H}Fld-I'
p55
sbsS'devname'
p56
VSQHG2C30A
p57
sS'elem_name'
p58
VCYHG2C30A
p59
sS'field_name'
p60
Vy
sg2
VCYHG2C30A.y
p61
sS'pvrb'
p62
(lp63
S'SR:C30-MG:G02A{VCor:H}Fld-I'
p64
asS'pvsp_val_time_stamp'
p65
NsS'cell'
p66
VC30
p67
sS'length'
p68
F0.20000000000000001
sS'sb'
p69
F5.4325000000000001
sS'se'
p70
F5.6325000000000003
sbasg2
S'CYHG2C30A.y'
p71
sS'weight'
p72
I1
sba(iTunerUtils.knob
KnobGroup
p73
(dp74
g20
(lp75
(iTunerUtils.knob
Knob
p76
(dp77
g24
VA
sg25
g26
sg27
I30
sg28
(lp78
VVCOR
p79
aVC30
p80
aVG2
p81
aVA
asg33
VVCOR
p82
sg35
Nsg36
I0
sg37
S''
sg38
(lp83
S'SR:C30-MG:G02A{VCor:H2}Fld-SP'
p84
asg41
F0
sg42
VG2
p85
sg44
g45
(g46
g47
F4.2351647362715017e-21
tRp86
(dp87
g50
I01
sg2
S'SR:C30-MG:G02A{VCor:H2}Fld-SP'
p88
sbsg52
g45
(g46
g47
F4.2334292137785604e-21
tRp89
(dp90
g50
I01
sg2
S'SR:C30-MG:G02A{VCor:H2}Fld-I'
p91
sbsg56
VCH2G2C30A
p92
sg58
VCYH2G2C30A
p93
sg60
Vy
sg2
VCYH2G2C30A.y
p94
sg62
(lp95
S'SR:C30-MG:G02A{VCor:H2}Fld-I'
p96
asg65
Nsg66
VC30
p97
sg68
F0.29999999999999999
sg69
F7.9985000000000008
sg70
F8.2985000000000007
sbasg2
S'CYH2G2C30A.y'
p98
sg72
F-0.2270371566140118
sba(iTunerUtils.knob
KnobGroup
p99
(dp100
g20
(lp101
(iTunerUtils.knob
Knob
p102
(dp103
g24
VA
sg25
g26
sg27
I40
sg28
(lp104
VVCOR
p105
aVC30
p106
aVG4
p107
aVA
asg33
VVCOR
p108
sg35
Nsg36
I0
sg37
S''
sg38
(lp109
S'SR:C30-MG:G04A{VCor:M1}Fld-SP'
p110
asg41
F0
sg42
VG4
p111
sg44
g45
(g46
g47
F1.1858461261560205e-20
tRp112
(dp113
g50
I01
sg2
S'SR:C30-MG:G04A{VCor:M1}Fld-SP'
p114
sbsg52
g45
(g46
g47
F1.1858274794110292e-20
tRp115
(dp116
g50
I01
sg2
S'SR:C30-MG:G04A{VCor:M1}Fld-I'
p117
sbsg56
VCM1G4C30A
p118
sg58
VCYM1G4C30A
p119
sg60
Vy
sg2
VCYM1G4C30A.y
p120
sg62
(lp121
S'SR:C30-MG:G04A{VCor:M1}Fld-I'
p122
asg65
Nsg66
VC30
p123
sg68
F0.20000000000000001
sg69
F11.365
sg70
F11.565
sbasg2
S'CYM1G4C30A.y'
p124
sg72
F-0.6629003196784985
sba(iTunerUtils.knob
KnobGroup
p125
(dp126
g20
(lp127
(iTunerUtils.knob
Knob
p128
(dp129
g24
VB
sg25
g26
sg27
I66
sg28
(lp130
VVCOR
p131
aVC30
p132
aVG4
p133
aVB
asg33
VVCOR
p134
sg35
Nsg36
I0
sg37
S''
sg38
(lp135
S'SR:C30-MG:G04B{VCor:M1}Fld-SP'
p136
asg41
F0
sg42
VG4
p137
sg44
g45
(g46
g47
F0
tRp138
(dp139
g50
I01
sg2
S'SR:C30-MG:G04B{VCor:M1}Fld-SP'
p140
sbsg52
g45
(g46
g47
F0
tRp141
(dp142
g50
I01
sg2
S'SR:C30-MG:G04B{VCor:M1}Fld-I'
p143
sbsg56
VCM1G4C30B
p144
sg58
VCYM1G4C30B
p145
sg60
Vy
sg2
VCYM1G4C30B.y
p146
sg62
(lp147
S'SR:C30-MG:G04B{VCor:M1}Fld-I'
p148
asg65
Nsg66
VC30
p149
sg68
F0.29999999999999999
sg69
F15.823999999999998
sg70
F16.123999999999999
sbasg2
S'CYM1G4C30B.y'
p150
sg72
F0.29692072492196336
sba(iTunerUtils.knob
KnobGroup
p151
(dp152
g20
(lp153
(iTunerUtils.knob
Knob
p154
(dp155
g24
VB
sg25
g26
sg27
I85
sg28
(lp156
VVCOR
p157
aVC30
p158
aVG6
p159
aVB
asg33
VVCOR
p160
sg35
Nsg36
I0
sg37
S''
sg38
(lp161
S'SR:C30-MG:G06B{VCor:L2}Fld-SP'
p162
asg41
F0
sg42
VG6
p163
sg44
g45
(g46
g47
F0
tRp164
(dp165
g50
I01
sg2
S'SR:C30-MG:G06B{VCor:L2}Fld-SP'
p166
sbsg52
g45
(g46
g47
F0
tRp167
(dp168
g50
I01
sg2
S'SR:C30-MG:G06B{VCor:L2}Fld-I'
p169
sbsg56
VCL2G6C30B
p170
sg58
VCYL2G6C30B
p171
sg60
Vy
sg2
VCYL2G6C30B.y
p172
sg62
(lp173
S'SR:C30-MG:G06B{VCor:L2}Fld-I'
p174
asg65
Nsg66
VC30
p175
sg68
F0.20000000000000001
sg69
F20.692499999999999
sg70
F20.892499999999998
sbasg2
g172
sg72
F0.10228213880254929
sba(iTunerUtils.knob
KnobGroup
p176
(dp177
g20
(lp178
(iTunerUtils.knob
Knob
p179
(dp180
g24
VB
sg25
g26
sg27
I93
sg28
(lp181
VVCOR
p182
aVC30
p183
aVG6
p184
aVB
asg33
VVCOR
p185
sg35
Nsg36
I0
sg37
S''
sg38
(lp186
S'SR:C30-MG:G06B{VCor:L1}Fld-SP'
p187
asg41
F0
sg42
VG6
p188
sg44
g45
(g46
g47
F0
tRp189
(dp190
g50
I01
sg2
S'SR:C30-MG:G06B{VCor:L1}Fld-SP'
p191
sbsg52
g45
(g46
g47
F0
tRp192
(dp193
g50
I01
sg2
S'SR:C30-MG:G06B{VCor:L1}Fld-I'
p194
sbsg56
VCL1G6C30B
p195
sg58
VCYL1G6C30B
p196
sg60
Vy
sg2
VCYL1G6C30B.y
p197
sg62
(lp198
S'SR:C30-MG:G06B{VCor:L1}Fld-I'
p199
asg65
Nsg66
VC30
p200
sg68
F0.20000000000000001
sg69
F22.129899999999999
sg70
F22.329899999999999
sbasg2
g197
sg72
F0.12835973808612944
sba(iTunerUtils.knob
KnobGroup
p201
(dp202
g20
(lp203
(iTunerUtils.knob
Knob
p204
(dp205
g24
VA
sg25
g26
sg27
I126
sg28
(lp206
VVCOR
p207
aVC01
p208
aVG2
p209
aVA
asg33
VVCOR
p210
sg35
Nsg36
I0
sg37
S''
sg38
(lp211
S'SR:C01-MG:G02A{VCor:L1}Fld-SP'
p212
asg41
F0
sg42
VG2
p213
sg44
g45
(g46
g47
F0
tRp214
(dp215
g50
I01
sg2
S'SR:C01-MG:G02A{VCor:L1}Fld-SP'
p216
sbsg52
g45
(g46
g47
F0
tRp217
(dp218
g50
I01
sg2
S'SR:C01-MG:G02A{VCor:L1}Fld-I'
p219
sbsg56
VCL1G2C01A
p220
sg58
VCYL1G2C01A
p221
sg60
Vy
sg2
VCYL1G2C01A.y
p222
sg62
(lp223
S'SR:C01-MG:G02A{VCor:L1}Fld-I'
p224
asg65
Nsg66
VC01
p225
sg68
F0.20000000000000001
sg69
F30.467300000000002
sg70
F30.667300000000001
sbasg2
S'CYL1G2C01A.y'
p226
sg72
F0.33564958659308353
sba(iTunerUtils.knob
KnobGroup
p227
(dp228
g20
(lp229
(iTunerUtils.knob
Knob
p230
(dp231
g24
VA
sg25
g26
sg27
I134
sg28
(lp232
VVCOR
p233
aVC01
p234
aVG2
p235
aVA
asg33
VVCOR
p236
sg35
Nsg36
I0
sg37
S''
sg38
(lp237
S'SR:C01-MG:G02A{VCor:L2}Fld-SP'
p238
asg41
F0
sg42
VG2
p239
sg44
g45
(g46
g47
F0
tRp240
(dp241
g50
I01
sg2
S'SR:C01-MG:G02A{VCor:L2}Fld-SP'
p242
sbsg52
g45
(g46
g47
F0
tRp243
(dp244
g50
I01
sg2
S'SR:C01-MG:G02A{VCor:L2}Fld-I'
p245
sbsg56
VCL2G2C01A
p246
sg58
VCYL2G2C01A
p247
sg60
Vy
sg2
VCYL2G2C01A.y
p248
sg62
(lp249
S'SR:C01-MG:G02A{VCor:L2}Fld-I'
p250
asg65
Nsg66
VC01
p251
sg68
F0.20000000000000001
sg69
F31.904700000000002
sg70
F32.104700000000001
sbasg2
g248
sg72
F0.031421199149906244
sba(iTunerUtils.knob
KnobGroup
p252
(dp253
g20
(lp254
(iTunerUtils.knob
Knob
p255
(dp256
g24
VA
sg25
g26
sg27
I151
sg28
(lp257
VVCOR
p258
aVC01
p259
aVG4
p260
aVA
asg33
VVCOR
p261
sg35
Nsg36
I0
sg37
S''
sg38
(lp262
S'SR:C01-MG:G04A{VCor:M}Fld-SP'
p263
asg41
F0
sg42
VG4
p264
sg44
g45
(g46
g47
F1.0587911840678754e-21
tRp265
(dp266
g50
I01
sg2
S'SR:C01-MG:G04A{VCor:M}Fld-SP'
p267
sbsg52
g45
(g46
g47
F1.0584679890081106e-21
tRp268
(dp269
g50
I01
sg2
S'SR:C01-MG:G04A{VCor:M}Fld-I'
p270
sbsg56
VSQMG4C01A
p271
sg58
VCYMG4C01A
p272
sg60
Vy
sg2
VCYMG4C01A.y
p273
sg62
(lp274
S'SR:C01-MG:G04A{VCor:M}Fld-I'
p275
asg65
Nsg66
VC01
p276
sg68
F0.20000000000000001
sg69
F36.522199999999998
sg70
F36.722200000000001
sbasg2
g273
sg72
F-0.088496446534196027
sba(iTunerUtils.knob
KnobGroup
p277
(dp278
g20
(lp279
(iTunerUtils.knob
Knob
p280
(dp281
g24
VB
sg25
g26
sg27
I177
sg28
(lp282
VVCOR
p283
aVC01
p284
aVG4
p285
aVB
asg33
VVCOR
p286
sg35
Nsg36
I0
sg37
S''
sg38
(lp287
S'SR:C01-MG:G04B{VCor:M1}Fld-SP'
p288
asg41
F0
sg42
VG4
p289
sg44
g45
(g46
g47
F0
tRp290
(dp291
g50
I01
sg2
S'SR:C01-MG:G04B{VCor:M1}Fld-SP'
p292
sbsg52
g45
(g46
g47
F0
tRp293
(dp294
g50
I01
sg2
S'SR:C01-MG:G04B{VCor:M1}Fld-I'
p295
sbsg56
VCM1G4C01B
p296
sg58
VCYM1G4C01B
p297
sg60
Vy
sg2
VCYM1G4C01B.y
p298
sg62
(lp299
S'SR:C01-MG:G04B{VCor:M1}Fld-I'
p300
asg65
Nsg66
VC01
p301
sg68
F0.29999999999999999
sg69
F40.981200000000001
sg70
F41.281199999999998
sbasg2
g298
sg72
F0.049994957533221834
sba(iTunerUtils.knob
KnobGroup
p302
(dp303
g20
(lp304
(iTunerUtils.knob
Knob
p305
(dp306
g24
VB
sg25
g26
sg27
I189
sg28
(lp307
VVCOR
p308
aVC01
p309
aVG6
p310
aVB
asg33
VVCOR
p311
sg35
Nsg36
I0
sg37
S''
sg38
(lp312
S'SR:C01-MG:G06B{VCor:H2}Fld-SP'
p313
asg41
F0
sg42
VG6
p314
sg44
g45
(g46
g47
F0
tRp315
(dp316
g50
I01
sg2
S'SR:C01-MG:G06B{VCor:H2}Fld-SP'
p317
sbsg52
g45
(g46
g47
F0
tRp318
(dp319
g50
I01
sg2
S'SR:C01-MG:G06B{VCor:H2}Fld-I'
p320
sbsg56
VCH2G6C01B
p321
sg58
VCYH2G6C01B
p322
sg60
Vy
sg2
VCYH2G6C01B.y
p323
sg62
(lp324
S'SR:C01-MG:G06B{VCor:H2}Fld-I'
p325
asg65
Nsg66
VC01
p326
sg68
F0.29999999999999999
sg69
F44.683500000000002
sg70
F44.983499999999999
sbasg2
g323
sg72
F-0.019139826635022974
sba(iTunerUtils.knob
KnobGroup
p327
(dp328
g20
(lp329
(iTunerUtils.knob
Knob
p330
(dp331
g24
VA
sg25
g26
sg27
I3158
sg28
(lp332
VVCOR
p333
aVC29
p334
aVG2
p335
aVA
asg33
VVCOR
p336
sg35
Nsg36
I0
sg37
S''
sg38
(lp337
S'SR:C29-MG:G02A{VCor:L2}Fld-SP'
p338
asg41
F0
sg42
VG2
p339
sg44
g45
(g46
g47
F1.3234889800848443e-22
tRp340
(dp341
g50
I01
sg2
S'SR:C29-MG:G02A{VCor:L2}Fld-SP'
p342
sbsg52
g45
(g46
g47
F1.3229031289584574e-22
tRp343
(dp344
g50
I01
sg2
S'SR:C29-MG:G02A{VCor:L2}Fld-I'
p345
sbsg56
VCL2G2C29A
p346
sg58
VCYL2G2C29A
p347
sg60
Vy
sg2
VCYL2G2C29A.y
p348
sg62
(lp349
S'SR:C29-MG:G02A{VCor:L2}Fld-I'
p350
asg65
Nsg66
VC29
p351
sg68
F0.20000000000000001
sg69
F771.06599999999992
sg70
F771.26599999999996
sbasg2
g348
sg72
F0.0066730796845829261
sba(iTunerUtils.knob
KnobGroup
p352
(dp353
g20
(lp354
(iTunerUtils.knob
Knob
p355
(dp356
g24
VA
sg25
g26
sg27
I3176
sg28
(lp357
VVCOR
p358
aVC29
p359
aVG4
p360
aVA
asg33
VVCOR
p361
sg35
Nsg36
I0
sg37
S''
sg38
(lp362
S'SR:C29-MG:G04A{VCor:M}Fld-SP'
p363
asg41
F0
sg42
VG4
p364
sg44
g45
(g46
g47
F0
tRp365
(dp366
g50
I01
sg2
S'SR:C29-MG:G04A{VCor:M}Fld-SP'
p367
sbsg52
g45
(g46
g47
F0
tRp368
(dp369
g50
I01
sg2
S'SR:C29-MG:G04A{VCor:M}Fld-I'
p370
sbsg56
VSQMG4C29A
p371
sg58
VCYMG4C29A
p372
sg60
Vy
sg2
VCYMG4C29A.y
p373
sg62
(lp374
S'SR:C29-MG:G04A{VCor:M}Fld-I'
p375
asg65
Nsg66
VC29
p376
sg68
F0.20000000000000001
sg69
F775.68299999999999
sg70
F775.88300000000004
sbasg2
g373
sg72
F-0.0041744942547176141
sba(iTunerUtils.knob
KnobGroup
p377
(dp378
g20
(lp379
(iTunerUtils.knob
Knob
p380
(dp381
g24
VB
sg25
g26
sg27
I3204
sg28
(lp382
VVCOR
p383
aVC29
p384
aVG4
p385
aVB
asg33
VVCOR
p386
sg35
Nsg36
I0
sg37
S''
sg38
(lp387
S'SR:C29-MG:G04B{VCor:M1}Fld-SP'
p388
asg41
F0
sg42
VG4
p389
sg44
g45
(g46
g47
F-6.6174449004242214e-23
tRp390
(dp391
g50
I01
sg2
S'SR:C29-MG:G04B{VCor:M1}Fld-SP'
p392
sbsg52
g45
(g46
g47
F-6.6153668702521264e-23
tRp393
(dp394
g50
I01
sg2
S'SR:C29-MG:G04B{VCor:M1}Fld-I'
p395
sbsg56
VCM1G4C29B
p396
sg58
VCYM1G4C29B
p397
sg60
Vy
sg2
VCYM1G4C29B.y
p398
sg62
(lp399
S'SR:C29-MG:G04B{VCor:M1}Fld-I'
p400
asg65
Nsg66
VC29
p401
sg68
F0.29999999999999999
sg69
F780.14200000000005
sg70
F780.44200000000001
sbasg2
g398
sg72
F-0.0050911618346463662
sba(iTunerUtils.knob
KnobGroup
p402
(dp403
g20
(lp404
(iTunerUtils.knob
Knob
p405
(dp406
g24
VB
sg25
g26
sg27
I3217
sg28
(lp407
VVCOR
p408
aVC29
p409
aVG6
p410
aVB
asg33
VVCOR
p411
sg35
Nsg36
I0
sg37
S''
sg38
(lp412
S'SR:C29-MG:G06B{VCor:H2}Fld-SP'
p413
asg41
F0
sg42
VG6
p414
sg44
g45
(g46
g47
F0
tRp415
(dp416
g50
I01
sg2
S'SR:C29-MG:G06B{VCor:H2}Fld-SP'
p417
sbsg52
g45
(g46
g47
F0
tRp418
(dp419
g50
I01
sg2
S'SR:C29-MG:G06B{VCor:H2}Fld-I'
p420
sbsg56
VCH2G6C29B
p421
sg58
VCYH2G6C29B
p422
sg60
Vy
sg2
VCYH2G6C29B.y
p423
sg62
(lp424
S'SR:C29-MG:G06B{VCor:H2}Fld-I'
p425
asg65
Nsg66
VC29
p426
sg68
F0.29999999999999999
sg69
F783.84400000000005
sg70
F784.14400000000001
sbasg2
g423
sg72
F0.014904502050318633
sba(iTunerUtils.knob
KnobGroup
p427
(dp428
g20
(lp429
(iTunerUtils.knob
Knob
p430
(dp431
g24
VB
sg25
g26
sg27
I3231
sg28
(lp432
VVCOR
p433
aVC29
p434
aVG6
p435
aVB
asg33
VVCOR
p436
sg35
Nsg36
I0
sg37
S''
sg38
(lp437
S'SR:C29-MG:G06B{VCor:H1}Fld-SP'
p438
asg41
F0
sg42
VG6
p439
sg44
g45
(g46
g47
F-2.6469779601696886e-22
tRp440
(dp441
g50
I01
sg2
S'SR:C29-MG:G06B{VCor:H1}Fld-SP'
p442
sbsg52
g45
(g46
g47
F-2.6479703699044923e-22
tRp443
(dp444
g50
I01
sg2
S'SR:C29-MG:G06B{VCor:H1}Fld-I'
p445
sbsg56
VCH1G6C29B
p446
sg58
VCYH1G6C29B
p447
sg60
Vy
sg2
VCYH1G6C29B.y
p448
sg62
(lp449
S'SR:C29-MG:G06B{VCor:H1}Fld-I'
p450
asg65
Nsg66
VC29
p451
sg68
F0.20000000000000001
sg69
F786.351
sg70
F786.55100000000004
sbasg2
g448
sg72
F-0.016647524308465195
sbasS'refStepSize'
p452
F1.0000000000000001e-05
sS'weight_list'
p453
(lp454
I1
aF-0.2270371566140118
aF-0.6629003196784985
aF0.29692072492196336
aF0.10228213880254929
aF0.12835973808612944
aF0.33564958659308353
aF0.031421199149906244
aF-0.088496446534196027
aF0.049994957533221834
aF-0.019139826635022974
aF0.0066730796845829261
aF-0.0041744942547176141
aF-0.0050911618346463662
aF0.014904502050318633
aF-0.016647524308465195
asS'ref_index'
p455
I0
sS'normalized_weight_list'
p456
(lp457
I1
aF-0.2270371566140118
aF-0.6629003196784985
aF0.29692072492196336
aF0.10228213880254929
aF0.12835973808612944
aF0.33564958659308353
aF0.031421199149906244
aF-0.088496446534196027
aF0.049994957533221834
aF-0.019139826635022974
aF0.0066730796845829261
aF-0.0041744942547176141
aF-0.0050911618346463662
aF0.014904502050318633
aF-0.016647524308465195
asS'step_size_list'
p458
(lp459
F1.0000000000000001e-05
aF-2.2703715661401182e-06
aF-6.6290031967849858e-06
aF2.9692072492196338e-06
aF1.022821388025493e-06
aF1.2835973808612946e-06
aF3.3564958659308355e-06
aF3.1421199149906247e-07
aF-8.8496446534196038e-07
aF4.9994957533221841e-07
aF-1.9139826635022974e-07
aF6.6730796845829265e-08
aF-4.1744942547176146e-08
aF-5.0911618346463663e-08
aF1.4904502050318634e-07
aF-1.6647524308465196e-07
asbsS'preferences'
p460
(dp461
g10
F1320805192.057147
sg8
g9
sS'TunerGUI'
p462
(dp463
S'visible_column_name_list'
p464
(lp465
S'Group Name'
p466
aS'Knob Name'
p467
aS'Weight'
p468
aS'N.Weight'
p469
aS'Step Size'
p470
aS'sb'
p471
aS'Reading'
p472
aS'Setpoint'
p473
aS'Start Read'
p474
aS'Start Setp'
p475
asss.